
./chals:     file format elf64-x86-64


Disassembly of section .init:

000000000000b000 <_init>:
_init():
    b000:	f3 0f 1e fa          	endbr64 
    b004:	48 83 ec 08          	sub    rsp,0x8
    b008:	48 8b 05 d1 df 00 00 	mov    rax,QWORD PTR [rip+0xdfd1]        # 18fe0 <__gmon_start__@Base>
    b00f:	48 85 c0             	test   rax,rax
    b012:	74 02                	je     b016 <_init+0x16>
    b014:	ff d0                	call   rax
    b016:	48 83 c4 08          	add    rsp,0x8
    b01a:	c3                   	ret    

Disassembly of section .plt:

000000000000b020 <.plt>:
    b020:	ff 35 fa c9 00 00    	push   QWORD PTR [rip+0xc9fa]        # 17a20 <_GLOBAL_OFFSET_TABLE_+0x8>
    b026:	f2 ff 25 fb c9 00 00 	bnd jmp QWORD PTR [rip+0xc9fb]        # 17a28 <_GLOBAL_OFFSET_TABLE_+0x10>
    b02d:	0f 1f 00             	nop    DWORD PTR [rax]
    b030:	f3 0f 1e fa          	endbr64 
    b034:	68 00 00 00 00       	push   0x0
    b039:	f2 e9 e1 ff ff ff    	bnd jmp b020 <_init+0x20>
    b03f:	90                   	nop
    b040:	f3 0f 1e fa          	endbr64 
    b044:	68 01 00 00 00       	push   0x1
    b049:	f2 e9 d1 ff ff ff    	bnd jmp b020 <_init+0x20>
    b04f:	90                   	nop
    b050:	f3 0f 1e fa          	endbr64 
    b054:	68 02 00 00 00       	push   0x2
    b059:	f2 e9 c1 ff ff ff    	bnd jmp b020 <_init+0x20>
    b05f:	90                   	nop
    b060:	f3 0f 1e fa          	endbr64 
    b064:	68 03 00 00 00       	push   0x3
    b069:	f2 e9 b1 ff ff ff    	bnd jmp b020 <_init+0x20>
    b06f:	90                   	nop
    b070:	f3 0f 1e fa          	endbr64 
    b074:	68 04 00 00 00       	push   0x4
    b079:	f2 e9 a1 ff ff ff    	bnd jmp b020 <_init+0x20>
    b07f:	90                   	nop
    b080:	f3 0f 1e fa          	endbr64 
    b084:	68 05 00 00 00       	push   0x5
    b089:	f2 e9 91 ff ff ff    	bnd jmp b020 <_init+0x20>
    b08f:	90                   	nop
    b090:	f3 0f 1e fa          	endbr64 
    b094:	68 06 00 00 00       	push   0x6
    b099:	f2 e9 81 ff ff ff    	bnd jmp b020 <_init+0x20>
    b09f:	90                   	nop
    b0a0:	f3 0f 1e fa          	endbr64 
    b0a4:	68 07 00 00 00       	push   0x7
    b0a9:	f2 e9 71 ff ff ff    	bnd jmp b020 <_init+0x20>
    b0af:	90                   	nop
    b0b0:	f3 0f 1e fa          	endbr64 
    b0b4:	68 08 00 00 00       	push   0x8
    b0b9:	f2 e9 61 ff ff ff    	bnd jmp b020 <_init+0x20>
    b0bf:	90                   	nop
    b0c0:	f3 0f 1e fa          	endbr64 
    b0c4:	68 09 00 00 00       	push   0x9
    b0c9:	f2 e9 51 ff ff ff    	bnd jmp b020 <_init+0x20>
    b0cf:	90                   	nop
    b0d0:	f3 0f 1e fa          	endbr64 
    b0d4:	68 0a 00 00 00       	push   0xa
    b0d9:	f2 e9 41 ff ff ff    	bnd jmp b020 <_init+0x20>
    b0df:	90                   	nop
    b0e0:	f3 0f 1e fa          	endbr64 
    b0e4:	68 0b 00 00 00       	push   0xb
    b0e9:	f2 e9 31 ff ff ff    	bnd jmp b020 <_init+0x20>
    b0ef:	90                   	nop
    b0f0:	f3 0f 1e fa          	endbr64 
    b0f4:	68 0c 00 00 00       	push   0xc
    b0f9:	f2 e9 21 ff ff ff    	bnd jmp b020 <_init+0x20>
    b0ff:	90                   	nop
    b100:	f3 0f 1e fa          	endbr64 
    b104:	68 0d 00 00 00       	push   0xd
    b109:	f2 e9 11 ff ff ff    	bnd jmp b020 <_init+0x20>
    b10f:	90                   	nop
    b110:	f3 0f 1e fa          	endbr64 
    b114:	68 0e 00 00 00       	push   0xe
    b119:	f2 e9 01 ff ff ff    	bnd jmp b020 <_init+0x20>
    b11f:	90                   	nop
    b120:	f3 0f 1e fa          	endbr64 
    b124:	68 0f 00 00 00       	push   0xf
    b129:	f2 e9 f1 fe ff ff    	bnd jmp b020 <_init+0x20>
    b12f:	90                   	nop
    b130:	f3 0f 1e fa          	endbr64 
    b134:	68 10 00 00 00       	push   0x10
    b139:	f2 e9 e1 fe ff ff    	bnd jmp b020 <_init+0x20>
    b13f:	90                   	nop
    b140:	f3 0f 1e fa          	endbr64 
    b144:	68 11 00 00 00       	push   0x11
    b149:	f2 e9 d1 fe ff ff    	bnd jmp b020 <_init+0x20>
    b14f:	90                   	nop
    b150:	f3 0f 1e fa          	endbr64 
    b154:	68 12 00 00 00       	push   0x12
    b159:	f2 e9 c1 fe ff ff    	bnd jmp b020 <_init+0x20>
    b15f:	90                   	nop
    b160:	f3 0f 1e fa          	endbr64 
    b164:	68 13 00 00 00       	push   0x13
    b169:	f2 e9 b1 fe ff ff    	bnd jmp b020 <_init+0x20>
    b16f:	90                   	nop
    b170:	f3 0f 1e fa          	endbr64 
    b174:	68 14 00 00 00       	push   0x14
    b179:	f2 e9 a1 fe ff ff    	bnd jmp b020 <_init+0x20>
    b17f:	90                   	nop
    b180:	f3 0f 1e fa          	endbr64 
    b184:	68 15 00 00 00       	push   0x15
    b189:	f2 e9 91 fe ff ff    	bnd jmp b020 <_init+0x20>
    b18f:	90                   	nop
    b190:	f3 0f 1e fa          	endbr64 
    b194:	68 16 00 00 00       	push   0x16
    b199:	f2 e9 81 fe ff ff    	bnd jmp b020 <_init+0x20>
    b19f:	90                   	nop
    b1a0:	f3 0f 1e fa          	endbr64 
    b1a4:	68 17 00 00 00       	push   0x17
    b1a9:	f2 e9 71 fe ff ff    	bnd jmp b020 <_init+0x20>
    b1af:	90                   	nop
    b1b0:	f3 0f 1e fa          	endbr64 
    b1b4:	68 18 00 00 00       	push   0x18
    b1b9:	f2 e9 61 fe ff ff    	bnd jmp b020 <_init+0x20>
    b1bf:	90                   	nop
    b1c0:	f3 0f 1e fa          	endbr64 
    b1c4:	68 19 00 00 00       	push   0x19
    b1c9:	f2 e9 51 fe ff ff    	bnd jmp b020 <_init+0x20>
    b1cf:	90                   	nop
    b1d0:	f3 0f 1e fa          	endbr64 
    b1d4:	68 1a 00 00 00       	push   0x1a
    b1d9:	f2 e9 41 fe ff ff    	bnd jmp b020 <_init+0x20>
    b1df:	90                   	nop
    b1e0:	f3 0f 1e fa          	endbr64 
    b1e4:	68 1b 00 00 00       	push   0x1b
    b1e9:	f2 e9 31 fe ff ff    	bnd jmp b020 <_init+0x20>
    b1ef:	90                   	nop
    b1f0:	f3 0f 1e fa          	endbr64 
    b1f4:	68 1c 00 00 00       	push   0x1c
    b1f9:	f2 e9 21 fe ff ff    	bnd jmp b020 <_init+0x20>
    b1ff:	90                   	nop
    b200:	f3 0f 1e fa          	endbr64 
    b204:	68 1d 00 00 00       	push   0x1d
    b209:	f2 e9 11 fe ff ff    	bnd jmp b020 <_init+0x20>
    b20f:	90                   	nop
    b210:	f3 0f 1e fa          	endbr64 
    b214:	68 1e 00 00 00       	push   0x1e
    b219:	f2 e9 01 fe ff ff    	bnd jmp b020 <_init+0x20>
    b21f:	90                   	nop
    b220:	f3 0f 1e fa          	endbr64 
    b224:	68 1f 00 00 00       	push   0x1f
    b229:	f2 e9 f1 fd ff ff    	bnd jmp b020 <_init+0x20>
    b22f:	90                   	nop
    b230:	f3 0f 1e fa          	endbr64 
    b234:	68 20 00 00 00       	push   0x20
    b239:	f2 e9 e1 fd ff ff    	bnd jmp b020 <_init+0x20>
    b23f:	90                   	nop
    b240:	f3 0f 1e fa          	endbr64 
    b244:	68 21 00 00 00       	push   0x21
    b249:	f2 e9 d1 fd ff ff    	bnd jmp b020 <_init+0x20>
    b24f:	90                   	nop
    b250:	f3 0f 1e fa          	endbr64 
    b254:	68 22 00 00 00       	push   0x22
    b259:	f2 e9 c1 fd ff ff    	bnd jmp b020 <_init+0x20>
    b25f:	90                   	nop
    b260:	f3 0f 1e fa          	endbr64 
    b264:	68 23 00 00 00       	push   0x23
    b269:	f2 e9 b1 fd ff ff    	bnd jmp b020 <_init+0x20>
    b26f:	90                   	nop
    b270:	f3 0f 1e fa          	endbr64 
    b274:	68 24 00 00 00       	push   0x24
    b279:	f2 e9 a1 fd ff ff    	bnd jmp b020 <_init+0x20>
    b27f:	90                   	nop
    b280:	f3 0f 1e fa          	endbr64 
    b284:	68 25 00 00 00       	push   0x25
    b289:	f2 e9 91 fd ff ff    	bnd jmp b020 <_init+0x20>
    b28f:	90                   	nop
    b290:	f3 0f 1e fa          	endbr64 
    b294:	68 26 00 00 00       	push   0x26
    b299:	f2 e9 81 fd ff ff    	bnd jmp b020 <_init+0x20>
    b29f:	90                   	nop
    b2a0:	f3 0f 1e fa          	endbr64 
    b2a4:	68 27 00 00 00       	push   0x27
    b2a9:	f2 e9 71 fd ff ff    	bnd jmp b020 <_init+0x20>
    b2af:	90                   	nop
    b2b0:	f3 0f 1e fa          	endbr64 
    b2b4:	68 28 00 00 00       	push   0x28
    b2b9:	f2 e9 61 fd ff ff    	bnd jmp b020 <_init+0x20>
    b2bf:	90                   	nop
    b2c0:	f3 0f 1e fa          	endbr64 
    b2c4:	68 29 00 00 00       	push   0x29
    b2c9:	f2 e9 51 fd ff ff    	bnd jmp b020 <_init+0x20>
    b2cf:	90                   	nop
    b2d0:	f3 0f 1e fa          	endbr64 
    b2d4:	68 2a 00 00 00       	push   0x2a
    b2d9:	f2 e9 41 fd ff ff    	bnd jmp b020 <_init+0x20>
    b2df:	90                   	nop
    b2e0:	f3 0f 1e fa          	endbr64 
    b2e4:	68 2b 00 00 00       	push   0x2b
    b2e9:	f2 e9 31 fd ff ff    	bnd jmp b020 <_init+0x20>
    b2ef:	90                   	nop
    b2f0:	f3 0f 1e fa          	endbr64 
    b2f4:	68 2c 00 00 00       	push   0x2c
    b2f9:	f2 e9 21 fd ff ff    	bnd jmp b020 <_init+0x20>
    b2ff:	90                   	nop
    b300:	f3 0f 1e fa          	endbr64 
    b304:	68 2d 00 00 00       	push   0x2d
    b309:	f2 e9 11 fd ff ff    	bnd jmp b020 <_init+0x20>
    b30f:	90                   	nop
    b310:	f3 0f 1e fa          	endbr64 
    b314:	68 2e 00 00 00       	push   0x2e
    b319:	f2 e9 01 fd ff ff    	bnd jmp b020 <_init+0x20>
    b31f:	90                   	nop
    b320:	f3 0f 1e fa          	endbr64 
    b324:	68 2f 00 00 00       	push   0x2f
    b329:	f2 e9 f1 fc ff ff    	bnd jmp b020 <_init+0x20>
    b32f:	90                   	nop
    b330:	f3 0f 1e fa          	endbr64 
    b334:	68 30 00 00 00       	push   0x30
    b339:	f2 e9 e1 fc ff ff    	bnd jmp b020 <_init+0x20>
    b33f:	90                   	nop
    b340:	f3 0f 1e fa          	endbr64 
    b344:	68 31 00 00 00       	push   0x31
    b349:	f2 e9 d1 fc ff ff    	bnd jmp b020 <_init+0x20>
    b34f:	90                   	nop
    b350:	f3 0f 1e fa          	endbr64 
    b354:	68 32 00 00 00       	push   0x32
    b359:	f2 e9 c1 fc ff ff    	bnd jmp b020 <_init+0x20>
    b35f:	90                   	nop
    b360:	f3 0f 1e fa          	endbr64 
    b364:	68 33 00 00 00       	push   0x33
    b369:	f2 e9 b1 fc ff ff    	bnd jmp b020 <_init+0x20>
    b36f:	90                   	nop
    b370:	f3 0f 1e fa          	endbr64 
    b374:	68 34 00 00 00       	push   0x34
    b379:	f2 e9 a1 fc ff ff    	bnd jmp b020 <_init+0x20>
    b37f:	90                   	nop
    b380:	f3 0f 1e fa          	endbr64 
    b384:	68 35 00 00 00       	push   0x35
    b389:	f2 e9 91 fc ff ff    	bnd jmp b020 <_init+0x20>
    b38f:	90                   	nop
    b390:	f3 0f 1e fa          	endbr64 
    b394:	68 36 00 00 00       	push   0x36
    b399:	f2 e9 81 fc ff ff    	bnd jmp b020 <_init+0x20>
    b39f:	90                   	nop
    b3a0:	f3 0f 1e fa          	endbr64 
    b3a4:	68 37 00 00 00       	push   0x37
    b3a9:	f2 e9 71 fc ff ff    	bnd jmp b020 <_init+0x20>
    b3af:	90                   	nop
    b3b0:	f3 0f 1e fa          	endbr64 
    b3b4:	68 38 00 00 00       	push   0x38
    b3b9:	f2 e9 61 fc ff ff    	bnd jmp b020 <_init+0x20>
    b3bf:	90                   	nop
    b3c0:	f3 0f 1e fa          	endbr64 
    b3c4:	68 39 00 00 00       	push   0x39
    b3c9:	f2 e9 51 fc ff ff    	bnd jmp b020 <_init+0x20>
    b3cf:	90                   	nop
    b3d0:	f3 0f 1e fa          	endbr64 
    b3d4:	68 3a 00 00 00       	push   0x3a
    b3d9:	f2 e9 41 fc ff ff    	bnd jmp b020 <_init+0x20>
    b3df:	90                   	nop
    b3e0:	f3 0f 1e fa          	endbr64 
    b3e4:	68 3b 00 00 00       	push   0x3b
    b3e9:	f2 e9 31 fc ff ff    	bnd jmp b020 <_init+0x20>
    b3ef:	90                   	nop
    b3f0:	f3 0f 1e fa          	endbr64 
    b3f4:	68 3c 00 00 00       	push   0x3c
    b3f9:	f2 e9 21 fc ff ff    	bnd jmp b020 <_init+0x20>
    b3ff:	90                   	nop
    b400:	f3 0f 1e fa          	endbr64 
    b404:	68 3d 00 00 00       	push   0x3d
    b409:	f2 e9 11 fc ff ff    	bnd jmp b020 <_init+0x20>
    b40f:	90                   	nop
    b410:	f3 0f 1e fa          	endbr64 
    b414:	68 3e 00 00 00       	push   0x3e
    b419:	f2 e9 01 fc ff ff    	bnd jmp b020 <_init+0x20>
    b41f:	90                   	nop
    b420:	f3 0f 1e fa          	endbr64 
    b424:	68 3f 00 00 00       	push   0x3f
    b429:	f2 e9 f1 fb ff ff    	bnd jmp b020 <_init+0x20>
    b42f:	90                   	nop
    b430:	f3 0f 1e fa          	endbr64 
    b434:	68 40 00 00 00       	push   0x40
    b439:	f2 e9 e1 fb ff ff    	bnd jmp b020 <_init+0x20>
    b43f:	90                   	nop
    b440:	f3 0f 1e fa          	endbr64 
    b444:	68 41 00 00 00       	push   0x41
    b449:	f2 e9 d1 fb ff ff    	bnd jmp b020 <_init+0x20>
    b44f:	90                   	nop
    b450:	f3 0f 1e fa          	endbr64 
    b454:	68 42 00 00 00       	push   0x42
    b459:	f2 e9 c1 fb ff ff    	bnd jmp b020 <_init+0x20>
    b45f:	90                   	nop
    b460:	f3 0f 1e fa          	endbr64 
    b464:	68 43 00 00 00       	push   0x43
    b469:	f2 e9 b1 fb ff ff    	bnd jmp b020 <_init+0x20>
    b46f:	90                   	nop
    b470:	f3 0f 1e fa          	endbr64 
    b474:	68 44 00 00 00       	push   0x44
    b479:	f2 e9 a1 fb ff ff    	bnd jmp b020 <_init+0x20>
    b47f:	90                   	nop
    b480:	f3 0f 1e fa          	endbr64 
    b484:	68 45 00 00 00       	push   0x45
    b489:	f2 e9 91 fb ff ff    	bnd jmp b020 <_init+0x20>
    b48f:	90                   	nop
    b490:	f3 0f 1e fa          	endbr64 
    b494:	68 46 00 00 00       	push   0x46
    b499:	f2 e9 81 fb ff ff    	bnd jmp b020 <_init+0x20>
    b49f:	90                   	nop
    b4a0:	f3 0f 1e fa          	endbr64 
    b4a4:	68 47 00 00 00       	push   0x47
    b4a9:	f2 e9 71 fb ff ff    	bnd jmp b020 <_init+0x20>
    b4af:	90                   	nop
    b4b0:	f3 0f 1e fa          	endbr64 
    b4b4:	68 48 00 00 00       	push   0x48
    b4b9:	f2 e9 61 fb ff ff    	bnd jmp b020 <_init+0x20>
    b4bf:	90                   	nop
    b4c0:	f3 0f 1e fa          	endbr64 
    b4c4:	68 49 00 00 00       	push   0x49
    b4c9:	f2 e9 51 fb ff ff    	bnd jmp b020 <_init+0x20>
    b4cf:	90                   	nop
    b4d0:	f3 0f 1e fa          	endbr64 
    b4d4:	68 4a 00 00 00       	push   0x4a
    b4d9:	f2 e9 41 fb ff ff    	bnd jmp b020 <_init+0x20>
    b4df:	90                   	nop
    b4e0:	f3 0f 1e fa          	endbr64 
    b4e4:	68 4b 00 00 00       	push   0x4b
    b4e9:	f2 e9 31 fb ff ff    	bnd jmp b020 <_init+0x20>
    b4ef:	90                   	nop
    b4f0:	f3 0f 1e fa          	endbr64 
    b4f4:	68 4c 00 00 00       	push   0x4c
    b4f9:	f2 e9 21 fb ff ff    	bnd jmp b020 <_init+0x20>
    b4ff:	90                   	nop
    b500:	f3 0f 1e fa          	endbr64 
    b504:	68 4d 00 00 00       	push   0x4d
    b509:	f2 e9 11 fb ff ff    	bnd jmp b020 <_init+0x20>
    b50f:	90                   	nop
    b510:	f3 0f 1e fa          	endbr64 
    b514:	68 4e 00 00 00       	push   0x4e
    b519:	f2 e9 01 fb ff ff    	bnd jmp b020 <_init+0x20>
    b51f:	90                   	nop
    b520:	f3 0f 1e fa          	endbr64 
    b524:	68 4f 00 00 00       	push   0x4f
    b529:	f2 e9 f1 fa ff ff    	bnd jmp b020 <_init+0x20>
    b52f:	90                   	nop
    b530:	f3 0f 1e fa          	endbr64 
    b534:	68 50 00 00 00       	push   0x50
    b539:	f2 e9 e1 fa ff ff    	bnd jmp b020 <_init+0x20>
    b53f:	90                   	nop
    b540:	f3 0f 1e fa          	endbr64 
    b544:	68 51 00 00 00       	push   0x51
    b549:	f2 e9 d1 fa ff ff    	bnd jmp b020 <_init+0x20>
    b54f:	90                   	nop
    b550:	f3 0f 1e fa          	endbr64 
    b554:	68 52 00 00 00       	push   0x52
    b559:	f2 e9 c1 fa ff ff    	bnd jmp b020 <_init+0x20>
    b55f:	90                   	nop
    b560:	f3 0f 1e fa          	endbr64 
    b564:	68 53 00 00 00       	push   0x53
    b569:	f2 e9 b1 fa ff ff    	bnd jmp b020 <_init+0x20>
    b56f:	90                   	nop
    b570:	f3 0f 1e fa          	endbr64 
    b574:	68 54 00 00 00       	push   0x54
    b579:	f2 e9 a1 fa ff ff    	bnd jmp b020 <_init+0x20>
    b57f:	90                   	nop
    b580:	f3 0f 1e fa          	endbr64 
    b584:	68 55 00 00 00       	push   0x55
    b589:	f2 e9 91 fa ff ff    	bnd jmp b020 <_init+0x20>
    b58f:	90                   	nop
    b590:	f3 0f 1e fa          	endbr64 
    b594:	68 56 00 00 00       	push   0x56
    b599:	f2 e9 81 fa ff ff    	bnd jmp b020 <_init+0x20>
    b59f:	90                   	nop
    b5a0:	f3 0f 1e fa          	endbr64 
    b5a4:	68 57 00 00 00       	push   0x57
    b5a9:	f2 e9 71 fa ff ff    	bnd jmp b020 <_init+0x20>
    b5af:	90                   	nop
    b5b0:	f3 0f 1e fa          	endbr64 
    b5b4:	68 58 00 00 00       	push   0x58
    b5b9:	f2 e9 61 fa ff ff    	bnd jmp b020 <_init+0x20>
    b5bf:	90                   	nop
    b5c0:	f3 0f 1e fa          	endbr64 
    b5c4:	68 59 00 00 00       	push   0x59
    b5c9:	f2 e9 51 fa ff ff    	bnd jmp b020 <_init+0x20>
    b5cf:	90                   	nop
    b5d0:	f3 0f 1e fa          	endbr64 
    b5d4:	68 5a 00 00 00       	push   0x5a
    b5d9:	f2 e9 41 fa ff ff    	bnd jmp b020 <_init+0x20>
    b5df:	90                   	nop
    b5e0:	f3 0f 1e fa          	endbr64 
    b5e4:	68 5b 00 00 00       	push   0x5b
    b5e9:	f2 e9 31 fa ff ff    	bnd jmp b020 <_init+0x20>
    b5ef:	90                   	nop
    b5f0:	f3 0f 1e fa          	endbr64 
    b5f4:	68 5c 00 00 00       	push   0x5c
    b5f9:	f2 e9 21 fa ff ff    	bnd jmp b020 <_init+0x20>
    b5ff:	90                   	nop
    b600:	f3 0f 1e fa          	endbr64 
    b604:	68 5d 00 00 00       	push   0x5d
    b609:	f2 e9 11 fa ff ff    	bnd jmp b020 <_init+0x20>
    b60f:	90                   	nop
    b610:	f3 0f 1e fa          	endbr64 
    b614:	68 5e 00 00 00       	push   0x5e
    b619:	f2 e9 01 fa ff ff    	bnd jmp b020 <_init+0x20>
    b61f:	90                   	nop
    b620:	f3 0f 1e fa          	endbr64 
    b624:	68 5f 00 00 00       	push   0x5f
    b629:	f2 e9 f1 f9 ff ff    	bnd jmp b020 <_init+0x20>
    b62f:	90                   	nop
    b630:	f3 0f 1e fa          	endbr64 
    b634:	68 60 00 00 00       	push   0x60
    b639:	f2 e9 e1 f9 ff ff    	bnd jmp b020 <_init+0x20>
    b63f:	90                   	nop
    b640:	f3 0f 1e fa          	endbr64 
    b644:	68 61 00 00 00       	push   0x61
    b649:	f2 e9 d1 f9 ff ff    	bnd jmp b020 <_init+0x20>
    b64f:	90                   	nop
    b650:	f3 0f 1e fa          	endbr64 
    b654:	68 62 00 00 00       	push   0x62
    b659:	f2 e9 c1 f9 ff ff    	bnd jmp b020 <_init+0x20>
    b65f:	90                   	nop
    b660:	f3 0f 1e fa          	endbr64 
    b664:	68 63 00 00 00       	push   0x63
    b669:	f2 e9 b1 f9 ff ff    	bnd jmp b020 <_init+0x20>
    b66f:	90                   	nop
    b670:	f3 0f 1e fa          	endbr64 
    b674:	68 64 00 00 00       	push   0x64
    b679:	f2 e9 a1 f9 ff ff    	bnd jmp b020 <_init+0x20>
    b67f:	90                   	nop
    b680:	f3 0f 1e fa          	endbr64 
    b684:	68 65 00 00 00       	push   0x65
    b689:	f2 e9 91 f9 ff ff    	bnd jmp b020 <_init+0x20>
    b68f:	90                   	nop
    b690:	f3 0f 1e fa          	endbr64 
    b694:	68 66 00 00 00       	push   0x66
    b699:	f2 e9 81 f9 ff ff    	bnd jmp b020 <_init+0x20>
    b69f:	90                   	nop
    b6a0:	f3 0f 1e fa          	endbr64 
    b6a4:	68 67 00 00 00       	push   0x67
    b6a9:	f2 e9 71 f9 ff ff    	bnd jmp b020 <_init+0x20>
    b6af:	90                   	nop
    b6b0:	f3 0f 1e fa          	endbr64 
    b6b4:	68 68 00 00 00       	push   0x68
    b6b9:	f2 e9 61 f9 ff ff    	bnd jmp b020 <_init+0x20>
    b6bf:	90                   	nop
    b6c0:	f3 0f 1e fa          	endbr64 
    b6c4:	68 69 00 00 00       	push   0x69
    b6c9:	f2 e9 51 f9 ff ff    	bnd jmp b020 <_init+0x20>
    b6cf:	90                   	nop
    b6d0:	f3 0f 1e fa          	endbr64 
    b6d4:	68 6a 00 00 00       	push   0x6a
    b6d9:	f2 e9 41 f9 ff ff    	bnd jmp b020 <_init+0x20>
    b6df:	90                   	nop
    b6e0:	f3 0f 1e fa          	endbr64 
    b6e4:	68 6b 00 00 00       	push   0x6b
    b6e9:	f2 e9 31 f9 ff ff    	bnd jmp b020 <_init+0x20>
    b6ef:	90                   	nop
    b6f0:	f3 0f 1e fa          	endbr64 
    b6f4:	68 6c 00 00 00       	push   0x6c
    b6f9:	f2 e9 21 f9 ff ff    	bnd jmp b020 <_init+0x20>
    b6ff:	90                   	nop
    b700:	f3 0f 1e fa          	endbr64 
    b704:	68 6d 00 00 00       	push   0x6d
    b709:	f2 e9 11 f9 ff ff    	bnd jmp b020 <_init+0x20>
    b70f:	90                   	nop
    b710:	f3 0f 1e fa          	endbr64 
    b714:	68 6e 00 00 00       	push   0x6e
    b719:	f2 e9 01 f9 ff ff    	bnd jmp b020 <_init+0x20>
    b71f:	90                   	nop
    b720:	f3 0f 1e fa          	endbr64 
    b724:	68 6f 00 00 00       	push   0x6f
    b729:	f2 e9 f1 f8 ff ff    	bnd jmp b020 <_init+0x20>
    b72f:	90                   	nop
    b730:	f3 0f 1e fa          	endbr64 
    b734:	68 70 00 00 00       	push   0x70
    b739:	f2 e9 e1 f8 ff ff    	bnd jmp b020 <_init+0x20>
    b73f:	90                   	nop
    b740:	f3 0f 1e fa          	endbr64 
    b744:	68 71 00 00 00       	push   0x71
    b749:	f2 e9 d1 f8 ff ff    	bnd jmp b020 <_init+0x20>
    b74f:	90                   	nop
    b750:	f3 0f 1e fa          	endbr64 
    b754:	68 72 00 00 00       	push   0x72
    b759:	f2 e9 c1 f8 ff ff    	bnd jmp b020 <_init+0x20>
    b75f:	90                   	nop
    b760:	f3 0f 1e fa          	endbr64 
    b764:	68 73 00 00 00       	push   0x73
    b769:	f2 e9 b1 f8 ff ff    	bnd jmp b020 <_init+0x20>
    b76f:	90                   	nop
    b770:	f3 0f 1e fa          	endbr64 
    b774:	68 74 00 00 00       	push   0x74
    b779:	f2 e9 a1 f8 ff ff    	bnd jmp b020 <_init+0x20>
    b77f:	90                   	nop
    b780:	f3 0f 1e fa          	endbr64 
    b784:	68 75 00 00 00       	push   0x75
    b789:	f2 e9 91 f8 ff ff    	bnd jmp b020 <_init+0x20>
    b78f:	90                   	nop
    b790:	f3 0f 1e fa          	endbr64 
    b794:	68 76 00 00 00       	push   0x76
    b799:	f2 e9 81 f8 ff ff    	bnd jmp b020 <_init+0x20>
    b79f:	90                   	nop
    b7a0:	f3 0f 1e fa          	endbr64 
    b7a4:	68 77 00 00 00       	push   0x77
    b7a9:	f2 e9 71 f8 ff ff    	bnd jmp b020 <_init+0x20>
    b7af:	90                   	nop
    b7b0:	f3 0f 1e fa          	endbr64 
    b7b4:	68 78 00 00 00       	push   0x78
    b7b9:	f2 e9 61 f8 ff ff    	bnd jmp b020 <_init+0x20>
    b7bf:	90                   	nop
    b7c0:	f3 0f 1e fa          	endbr64 
    b7c4:	68 79 00 00 00       	push   0x79
    b7c9:	f2 e9 51 f8 ff ff    	bnd jmp b020 <_init+0x20>
    b7cf:	90                   	nop
    b7d0:	f3 0f 1e fa          	endbr64 
    b7d4:	68 7a 00 00 00       	push   0x7a
    b7d9:	f2 e9 41 f8 ff ff    	bnd jmp b020 <_init+0x20>
    b7df:	90                   	nop
    b7e0:	f3 0f 1e fa          	endbr64 
    b7e4:	68 7b 00 00 00       	push   0x7b
    b7e9:	f2 e9 31 f8 ff ff    	bnd jmp b020 <_init+0x20>
    b7ef:	90                   	nop
    b7f0:	f3 0f 1e fa          	endbr64 
    b7f4:	68 7c 00 00 00       	push   0x7c
    b7f9:	f2 e9 21 f8 ff ff    	bnd jmp b020 <_init+0x20>
    b7ff:	90                   	nop
    b800:	f3 0f 1e fa          	endbr64 
    b804:	68 7d 00 00 00       	push   0x7d
    b809:	f2 e9 11 f8 ff ff    	bnd jmp b020 <_init+0x20>
    b80f:	90                   	nop
    b810:	f3 0f 1e fa          	endbr64 
    b814:	68 7e 00 00 00       	push   0x7e
    b819:	f2 e9 01 f8 ff ff    	bnd jmp b020 <_init+0x20>
    b81f:	90                   	nop
    b820:	f3 0f 1e fa          	endbr64 
    b824:	68 7f 00 00 00       	push   0x7f
    b829:	f2 e9 f1 f7 ff ff    	bnd jmp b020 <_init+0x20>
    b82f:	90                   	nop
    b830:	f3 0f 1e fa          	endbr64 
    b834:	68 80 00 00 00       	push   0x80
    b839:	f2 e9 e1 f7 ff ff    	bnd jmp b020 <_init+0x20>
    b83f:	90                   	nop
    b840:	f3 0f 1e fa          	endbr64 
    b844:	68 81 00 00 00       	push   0x81
    b849:	f2 e9 d1 f7 ff ff    	bnd jmp b020 <_init+0x20>
    b84f:	90                   	nop
    b850:	f3 0f 1e fa          	endbr64 
    b854:	68 82 00 00 00       	push   0x82
    b859:	f2 e9 c1 f7 ff ff    	bnd jmp b020 <_init+0x20>
    b85f:	90                   	nop
    b860:	f3 0f 1e fa          	endbr64 
    b864:	68 83 00 00 00       	push   0x83
    b869:	f2 e9 b1 f7 ff ff    	bnd jmp b020 <_init+0x20>
    b86f:	90                   	nop
    b870:	f3 0f 1e fa          	endbr64 
    b874:	68 84 00 00 00       	push   0x84
    b879:	f2 e9 a1 f7 ff ff    	bnd jmp b020 <_init+0x20>
    b87f:	90                   	nop
    b880:	f3 0f 1e fa          	endbr64 
    b884:	68 85 00 00 00       	push   0x85
    b889:	f2 e9 91 f7 ff ff    	bnd jmp b020 <_init+0x20>
    b88f:	90                   	nop
    b890:	f3 0f 1e fa          	endbr64 
    b894:	68 86 00 00 00       	push   0x86
    b899:	f2 e9 81 f7 ff ff    	bnd jmp b020 <_init+0x20>
    b89f:	90                   	nop
    b8a0:	f3 0f 1e fa          	endbr64 
    b8a4:	68 87 00 00 00       	push   0x87
    b8a9:	f2 e9 71 f7 ff ff    	bnd jmp b020 <_init+0x20>
    b8af:	90                   	nop
    b8b0:	f3 0f 1e fa          	endbr64 
    b8b4:	68 88 00 00 00       	push   0x88
    b8b9:	f2 e9 61 f7 ff ff    	bnd jmp b020 <_init+0x20>
    b8bf:	90                   	nop
    b8c0:	f3 0f 1e fa          	endbr64 
    b8c4:	68 89 00 00 00       	push   0x89
    b8c9:	f2 e9 51 f7 ff ff    	bnd jmp b020 <_init+0x20>
    b8cf:	90                   	nop
    b8d0:	f3 0f 1e fa          	endbr64 
    b8d4:	68 8a 00 00 00       	push   0x8a
    b8d9:	f2 e9 41 f7 ff ff    	bnd jmp b020 <_init+0x20>
    b8df:	90                   	nop
    b8e0:	f3 0f 1e fa          	endbr64 
    b8e4:	68 8b 00 00 00       	push   0x8b
    b8e9:	f2 e9 31 f7 ff ff    	bnd jmp b020 <_init+0x20>
    b8ef:	90                   	nop
    b8f0:	f3 0f 1e fa          	endbr64 
    b8f4:	68 8c 00 00 00       	push   0x8c
    b8f9:	f2 e9 21 f7 ff ff    	bnd jmp b020 <_init+0x20>
    b8ff:	90                   	nop
    b900:	f3 0f 1e fa          	endbr64 
    b904:	68 8d 00 00 00       	push   0x8d
    b909:	f2 e9 11 f7 ff ff    	bnd jmp b020 <_init+0x20>
    b90f:	90                   	nop
    b910:	f3 0f 1e fa          	endbr64 
    b914:	68 8e 00 00 00       	push   0x8e
    b919:	f2 e9 01 f7 ff ff    	bnd jmp b020 <_init+0x20>
    b91f:	90                   	nop
    b920:	f3 0f 1e fa          	endbr64 
    b924:	68 8f 00 00 00       	push   0x8f
    b929:	f2 e9 f1 f6 ff ff    	bnd jmp b020 <_init+0x20>
    b92f:	90                   	nop
    b930:	f3 0f 1e fa          	endbr64 
    b934:	68 90 00 00 00       	push   0x90
    b939:	f2 e9 e1 f6 ff ff    	bnd jmp b020 <_init+0x20>
    b93f:	90                   	nop
    b940:	f3 0f 1e fa          	endbr64 
    b944:	68 91 00 00 00       	push   0x91
    b949:	f2 e9 d1 f6 ff ff    	bnd jmp b020 <_init+0x20>
    b94f:	90                   	nop
    b950:	f3 0f 1e fa          	endbr64 
    b954:	68 92 00 00 00       	push   0x92
    b959:	f2 e9 c1 f6 ff ff    	bnd jmp b020 <_init+0x20>
    b95f:	90                   	nop
    b960:	f3 0f 1e fa          	endbr64 
    b964:	68 93 00 00 00       	push   0x93
    b969:	f2 e9 b1 f6 ff ff    	bnd jmp b020 <_init+0x20>
    b96f:	90                   	nop
    b970:	f3 0f 1e fa          	endbr64 
    b974:	68 94 00 00 00       	push   0x94
    b979:	f2 e9 a1 f6 ff ff    	bnd jmp b020 <_init+0x20>
    b97f:	90                   	nop
    b980:	f3 0f 1e fa          	endbr64 
    b984:	68 95 00 00 00       	push   0x95
    b989:	f2 e9 91 f6 ff ff    	bnd jmp b020 <_init+0x20>
    b98f:	90                   	nop
    b990:	f3 0f 1e fa          	endbr64 
    b994:	68 96 00 00 00       	push   0x96
    b999:	f2 e9 81 f6 ff ff    	bnd jmp b020 <_init+0x20>
    b99f:	90                   	nop
    b9a0:	f3 0f 1e fa          	endbr64 
    b9a4:	68 97 00 00 00       	push   0x97
    b9a9:	f2 e9 71 f6 ff ff    	bnd jmp b020 <_init+0x20>
    b9af:	90                   	nop
    b9b0:	f3 0f 1e fa          	endbr64 
    b9b4:	68 98 00 00 00       	push   0x98
    b9b9:	f2 e9 61 f6 ff ff    	bnd jmp b020 <_init+0x20>
    b9bf:	90                   	nop
    b9c0:	f3 0f 1e fa          	endbr64 
    b9c4:	68 99 00 00 00       	push   0x99
    b9c9:	f2 e9 51 f6 ff ff    	bnd jmp b020 <_init+0x20>
    b9cf:	90                   	nop
    b9d0:	f3 0f 1e fa          	endbr64 
    b9d4:	68 9a 00 00 00       	push   0x9a
    b9d9:	f2 e9 41 f6 ff ff    	bnd jmp b020 <_init+0x20>
    b9df:	90                   	nop
    b9e0:	f3 0f 1e fa          	endbr64 
    b9e4:	68 9b 00 00 00       	push   0x9b
    b9e9:	f2 e9 31 f6 ff ff    	bnd jmp b020 <_init+0x20>
    b9ef:	90                   	nop
    b9f0:	f3 0f 1e fa          	endbr64 
    b9f4:	68 9c 00 00 00       	push   0x9c
    b9f9:	f2 e9 21 f6 ff ff    	bnd jmp b020 <_init+0x20>
    b9ff:	90                   	nop
    ba00:	f3 0f 1e fa          	endbr64 
    ba04:	68 9d 00 00 00       	push   0x9d
    ba09:	f2 e9 11 f6 ff ff    	bnd jmp b020 <_init+0x20>
    ba0f:	90                   	nop
    ba10:	f3 0f 1e fa          	endbr64 
    ba14:	68 9e 00 00 00       	push   0x9e
    ba19:	f2 e9 01 f6 ff ff    	bnd jmp b020 <_init+0x20>
    ba1f:	90                   	nop
    ba20:	f3 0f 1e fa          	endbr64 
    ba24:	68 9f 00 00 00       	push   0x9f
    ba29:	f2 e9 f1 f5 ff ff    	bnd jmp b020 <_init+0x20>
    ba2f:	90                   	nop
    ba30:	f3 0f 1e fa          	endbr64 
    ba34:	68 a0 00 00 00       	push   0xa0
    ba39:	f2 e9 e1 f5 ff ff    	bnd jmp b020 <_init+0x20>
    ba3f:	90                   	nop
    ba40:	f3 0f 1e fa          	endbr64 
    ba44:	68 a1 00 00 00       	push   0xa1
    ba49:	f2 e9 d1 f5 ff ff    	bnd jmp b020 <_init+0x20>
    ba4f:	90                   	nop
    ba50:	f3 0f 1e fa          	endbr64 
    ba54:	68 a2 00 00 00       	push   0xa2
    ba59:	f2 e9 c1 f5 ff ff    	bnd jmp b020 <_init+0x20>
    ba5f:	90                   	nop
    ba60:	f3 0f 1e fa          	endbr64 
    ba64:	68 a3 00 00 00       	push   0xa3
    ba69:	f2 e9 b1 f5 ff ff    	bnd jmp b020 <_init+0x20>
    ba6f:	90                   	nop
    ba70:	f3 0f 1e fa          	endbr64 
    ba74:	68 a4 00 00 00       	push   0xa4
    ba79:	f2 e9 a1 f5 ff ff    	bnd jmp b020 <_init+0x20>
    ba7f:	90                   	nop
    ba80:	f3 0f 1e fa          	endbr64 
    ba84:	68 a5 00 00 00       	push   0xa5
    ba89:	f2 e9 91 f5 ff ff    	bnd jmp b020 <_init+0x20>
    ba8f:	90                   	nop
    ba90:	f3 0f 1e fa          	endbr64 
    ba94:	68 a6 00 00 00       	push   0xa6
    ba99:	f2 e9 81 f5 ff ff    	bnd jmp b020 <_init+0x20>
    ba9f:	90                   	nop
    baa0:	f3 0f 1e fa          	endbr64 
    baa4:	68 a7 00 00 00       	push   0xa7
    baa9:	f2 e9 71 f5 ff ff    	bnd jmp b020 <_init+0x20>
    baaf:	90                   	nop
    bab0:	f3 0f 1e fa          	endbr64 
    bab4:	68 a8 00 00 00       	push   0xa8
    bab9:	f2 e9 61 f5 ff ff    	bnd jmp b020 <_init+0x20>
    babf:	90                   	nop
    bac0:	f3 0f 1e fa          	endbr64 
    bac4:	68 a9 00 00 00       	push   0xa9
    bac9:	f2 e9 51 f5 ff ff    	bnd jmp b020 <_init+0x20>
    bacf:	90                   	nop
    bad0:	f3 0f 1e fa          	endbr64 
    bad4:	68 aa 00 00 00       	push   0xaa
    bad9:	f2 e9 41 f5 ff ff    	bnd jmp b020 <_init+0x20>
    badf:	90                   	nop
    bae0:	f3 0f 1e fa          	endbr64 
    bae4:	68 ab 00 00 00       	push   0xab
    bae9:	f2 e9 31 f5 ff ff    	bnd jmp b020 <_init+0x20>
    baef:	90                   	nop
    baf0:	f3 0f 1e fa          	endbr64 
    baf4:	68 ac 00 00 00       	push   0xac
    baf9:	f2 e9 21 f5 ff ff    	bnd jmp b020 <_init+0x20>
    baff:	90                   	nop
    bb00:	f3 0f 1e fa          	endbr64 
    bb04:	68 ad 00 00 00       	push   0xad
    bb09:	f2 e9 11 f5 ff ff    	bnd jmp b020 <_init+0x20>
    bb0f:	90                   	nop
    bb10:	f3 0f 1e fa          	endbr64 
    bb14:	68 ae 00 00 00       	push   0xae
    bb19:	f2 e9 01 f5 ff ff    	bnd jmp b020 <_init+0x20>
    bb1f:	90                   	nop
    bb20:	f3 0f 1e fa          	endbr64 
    bb24:	68 af 00 00 00       	push   0xaf
    bb29:	f2 e9 f1 f4 ff ff    	bnd jmp b020 <_init+0x20>
    bb2f:	90                   	nop
    bb30:	f3 0f 1e fa          	endbr64 
    bb34:	68 b0 00 00 00       	push   0xb0
    bb39:	f2 e9 e1 f4 ff ff    	bnd jmp b020 <_init+0x20>
    bb3f:	90                   	nop
    bb40:	f3 0f 1e fa          	endbr64 
    bb44:	68 b1 00 00 00       	push   0xb1
    bb49:	f2 e9 d1 f4 ff ff    	bnd jmp b020 <_init+0x20>
    bb4f:	90                   	nop
    bb50:	f3 0f 1e fa          	endbr64 
    bb54:	68 b2 00 00 00       	push   0xb2
    bb59:	f2 e9 c1 f4 ff ff    	bnd jmp b020 <_init+0x20>
    bb5f:	90                   	nop
    bb60:	f3 0f 1e fa          	endbr64 
    bb64:	68 b3 00 00 00       	push   0xb3
    bb69:	f2 e9 b1 f4 ff ff    	bnd jmp b020 <_init+0x20>
    bb6f:	90                   	nop
    bb70:	f3 0f 1e fa          	endbr64 
    bb74:	68 b4 00 00 00       	push   0xb4
    bb79:	f2 e9 a1 f4 ff ff    	bnd jmp b020 <_init+0x20>
    bb7f:	90                   	nop
    bb80:	f3 0f 1e fa          	endbr64 
    bb84:	68 b5 00 00 00       	push   0xb5
    bb89:	f2 e9 91 f4 ff ff    	bnd jmp b020 <_init+0x20>
    bb8f:	90                   	nop
    bb90:	f3 0f 1e fa          	endbr64 
    bb94:	68 b6 00 00 00       	push   0xb6
    bb99:	f2 e9 81 f4 ff ff    	bnd jmp b020 <_init+0x20>
    bb9f:	90                   	nop
    bba0:	f3 0f 1e fa          	endbr64 
    bba4:	68 b7 00 00 00       	push   0xb7
    bba9:	f2 e9 71 f4 ff ff    	bnd jmp b020 <_init+0x20>
    bbaf:	90                   	nop
    bbb0:	f3 0f 1e fa          	endbr64 
    bbb4:	68 b8 00 00 00       	push   0xb8
    bbb9:	f2 e9 61 f4 ff ff    	bnd jmp b020 <_init+0x20>
    bbbf:	90                   	nop
    bbc0:	f3 0f 1e fa          	endbr64 
    bbc4:	68 b9 00 00 00       	push   0xb9
    bbc9:	f2 e9 51 f4 ff ff    	bnd jmp b020 <_init+0x20>
    bbcf:	90                   	nop
    bbd0:	f3 0f 1e fa          	endbr64 
    bbd4:	68 ba 00 00 00       	push   0xba
    bbd9:	f2 e9 41 f4 ff ff    	bnd jmp b020 <_init+0x20>
    bbdf:	90                   	nop
    bbe0:	f3 0f 1e fa          	endbr64 
    bbe4:	68 bb 00 00 00       	push   0xbb
    bbe9:	f2 e9 31 f4 ff ff    	bnd jmp b020 <_init+0x20>
    bbef:	90                   	nop
    bbf0:	f3 0f 1e fa          	endbr64 
    bbf4:	68 bc 00 00 00       	push   0xbc
    bbf9:	f2 e9 21 f4 ff ff    	bnd jmp b020 <_init+0x20>
    bbff:	90                   	nop
    bc00:	f3 0f 1e fa          	endbr64 
    bc04:	68 bd 00 00 00       	push   0xbd
    bc09:	f2 e9 11 f4 ff ff    	bnd jmp b020 <_init+0x20>
    bc0f:	90                   	nop
    bc10:	f3 0f 1e fa          	endbr64 
    bc14:	68 be 00 00 00       	push   0xbe
    bc19:	f2 e9 01 f4 ff ff    	bnd jmp b020 <_init+0x20>
    bc1f:	90                   	nop
    bc20:	f3 0f 1e fa          	endbr64 
    bc24:	68 bf 00 00 00       	push   0xbf
    bc29:	f2 e9 f1 f3 ff ff    	bnd jmp b020 <_init+0x20>
    bc2f:	90                   	nop
    bc30:	f3 0f 1e fa          	endbr64 
    bc34:	68 c0 00 00 00       	push   0xc0
    bc39:	f2 e9 e1 f3 ff ff    	bnd jmp b020 <_init+0x20>
    bc3f:	90                   	nop
    bc40:	f3 0f 1e fa          	endbr64 
    bc44:	68 c1 00 00 00       	push   0xc1
    bc49:	f2 e9 d1 f3 ff ff    	bnd jmp b020 <_init+0x20>
    bc4f:	90                   	nop
    bc50:	f3 0f 1e fa          	endbr64 
    bc54:	68 c2 00 00 00       	push   0xc2
    bc59:	f2 e9 c1 f3 ff ff    	bnd jmp b020 <_init+0x20>
    bc5f:	90                   	nop
    bc60:	f3 0f 1e fa          	endbr64 
    bc64:	68 c3 00 00 00       	push   0xc3
    bc69:	f2 e9 b1 f3 ff ff    	bnd jmp b020 <_init+0x20>
    bc6f:	90                   	nop
    bc70:	f3 0f 1e fa          	endbr64 
    bc74:	68 c4 00 00 00       	push   0xc4
    bc79:	f2 e9 a1 f3 ff ff    	bnd jmp b020 <_init+0x20>
    bc7f:	90                   	nop
    bc80:	f3 0f 1e fa          	endbr64 
    bc84:	68 c5 00 00 00       	push   0xc5
    bc89:	f2 e9 91 f3 ff ff    	bnd jmp b020 <_init+0x20>
    bc8f:	90                   	nop
    bc90:	f3 0f 1e fa          	endbr64 
    bc94:	68 c6 00 00 00       	push   0xc6
    bc99:	f2 e9 81 f3 ff ff    	bnd jmp b020 <_init+0x20>
    bc9f:	90                   	nop
    bca0:	f3 0f 1e fa          	endbr64 
    bca4:	68 c7 00 00 00       	push   0xc7
    bca9:	f2 e9 71 f3 ff ff    	bnd jmp b020 <_init+0x20>
    bcaf:	90                   	nop
    bcb0:	f3 0f 1e fa          	endbr64 
    bcb4:	68 c8 00 00 00       	push   0xc8
    bcb9:	f2 e9 61 f3 ff ff    	bnd jmp b020 <_init+0x20>
    bcbf:	90                   	nop
    bcc0:	f3 0f 1e fa          	endbr64 
    bcc4:	68 c9 00 00 00       	push   0xc9
    bcc9:	f2 e9 51 f3 ff ff    	bnd jmp b020 <_init+0x20>
    bccf:	90                   	nop
    bcd0:	f3 0f 1e fa          	endbr64 
    bcd4:	68 ca 00 00 00       	push   0xca
    bcd9:	f2 e9 41 f3 ff ff    	bnd jmp b020 <_init+0x20>
    bcdf:	90                   	nop
    bce0:	f3 0f 1e fa          	endbr64 
    bce4:	68 cb 00 00 00       	push   0xcb
    bce9:	f2 e9 31 f3 ff ff    	bnd jmp b020 <_init+0x20>
    bcef:	90                   	nop
    bcf0:	f3 0f 1e fa          	endbr64 
    bcf4:	68 cc 00 00 00       	push   0xcc
    bcf9:	f2 e9 21 f3 ff ff    	bnd jmp b020 <_init+0x20>
    bcff:	90                   	nop
    bd00:	f3 0f 1e fa          	endbr64 
    bd04:	68 cd 00 00 00       	push   0xcd
    bd09:	f2 e9 11 f3 ff ff    	bnd jmp b020 <_init+0x20>
    bd0f:	90                   	nop
    bd10:	f3 0f 1e fa          	endbr64 
    bd14:	68 ce 00 00 00       	push   0xce
    bd19:	f2 e9 01 f3 ff ff    	bnd jmp b020 <_init+0x20>
    bd1f:	90                   	nop
    bd20:	f3 0f 1e fa          	endbr64 
    bd24:	68 cf 00 00 00       	push   0xcf
    bd29:	f2 e9 f1 f2 ff ff    	bnd jmp b020 <_init+0x20>
    bd2f:	90                   	nop
    bd30:	f3 0f 1e fa          	endbr64 
    bd34:	68 d0 00 00 00       	push   0xd0
    bd39:	f2 e9 e1 f2 ff ff    	bnd jmp b020 <_init+0x20>
    bd3f:	90                   	nop
    bd40:	f3 0f 1e fa          	endbr64 
    bd44:	68 d1 00 00 00       	push   0xd1
    bd49:	f2 e9 d1 f2 ff ff    	bnd jmp b020 <_init+0x20>
    bd4f:	90                   	nop
    bd50:	f3 0f 1e fa          	endbr64 
    bd54:	68 d2 00 00 00       	push   0xd2
    bd59:	f2 e9 c1 f2 ff ff    	bnd jmp b020 <_init+0x20>
    bd5f:	90                   	nop
    bd60:	f3 0f 1e fa          	endbr64 
    bd64:	68 d3 00 00 00       	push   0xd3
    bd69:	f2 e9 b1 f2 ff ff    	bnd jmp b020 <_init+0x20>
    bd6f:	90                   	nop
    bd70:	f3 0f 1e fa          	endbr64 
    bd74:	68 d4 00 00 00       	push   0xd4
    bd79:	f2 e9 a1 f2 ff ff    	bnd jmp b020 <_init+0x20>
    bd7f:	90                   	nop
    bd80:	f3 0f 1e fa          	endbr64 
    bd84:	68 d5 00 00 00       	push   0xd5
    bd89:	f2 e9 91 f2 ff ff    	bnd jmp b020 <_init+0x20>
    bd8f:	90                   	nop
    bd90:	f3 0f 1e fa          	endbr64 
    bd94:	68 d6 00 00 00       	push   0xd6
    bd99:	f2 e9 81 f2 ff ff    	bnd jmp b020 <_init+0x20>
    bd9f:	90                   	nop
    bda0:	f3 0f 1e fa          	endbr64 
    bda4:	68 d7 00 00 00       	push   0xd7
    bda9:	f2 e9 71 f2 ff ff    	bnd jmp b020 <_init+0x20>
    bdaf:	90                   	nop
    bdb0:	f3 0f 1e fa          	endbr64 
    bdb4:	68 d8 00 00 00       	push   0xd8
    bdb9:	f2 e9 61 f2 ff ff    	bnd jmp b020 <_init+0x20>
    bdbf:	90                   	nop
    bdc0:	f3 0f 1e fa          	endbr64 
    bdc4:	68 d9 00 00 00       	push   0xd9
    bdc9:	f2 e9 51 f2 ff ff    	bnd jmp b020 <_init+0x20>
    bdcf:	90                   	nop
    bdd0:	f3 0f 1e fa          	endbr64 
    bdd4:	68 da 00 00 00       	push   0xda
    bdd9:	f2 e9 41 f2 ff ff    	bnd jmp b020 <_init+0x20>
    bddf:	90                   	nop
    bde0:	f3 0f 1e fa          	endbr64 
    bde4:	68 db 00 00 00       	push   0xdb
    bde9:	f2 e9 31 f2 ff ff    	bnd jmp b020 <_init+0x20>
    bdef:	90                   	nop
    bdf0:	f3 0f 1e fa          	endbr64 
    bdf4:	68 dc 00 00 00       	push   0xdc
    bdf9:	f2 e9 21 f2 ff ff    	bnd jmp b020 <_init+0x20>
    bdff:	90                   	nop
    be00:	f3 0f 1e fa          	endbr64 
    be04:	68 dd 00 00 00       	push   0xdd
    be09:	f2 e9 11 f2 ff ff    	bnd jmp b020 <_init+0x20>
    be0f:	90                   	nop
    be10:	f3 0f 1e fa          	endbr64 
    be14:	68 de 00 00 00       	push   0xde
    be19:	f2 e9 01 f2 ff ff    	bnd jmp b020 <_init+0x20>
    be1f:	90                   	nop
    be20:	f3 0f 1e fa          	endbr64 
    be24:	68 df 00 00 00       	push   0xdf
    be29:	f2 e9 f1 f1 ff ff    	bnd jmp b020 <_init+0x20>
    be2f:	90                   	nop
    be30:	f3 0f 1e fa          	endbr64 
    be34:	68 e0 00 00 00       	push   0xe0
    be39:	f2 e9 e1 f1 ff ff    	bnd jmp b020 <_init+0x20>
    be3f:	90                   	nop
    be40:	f3 0f 1e fa          	endbr64 
    be44:	68 e1 00 00 00       	push   0xe1
    be49:	f2 e9 d1 f1 ff ff    	bnd jmp b020 <_init+0x20>
    be4f:	90                   	nop
    be50:	f3 0f 1e fa          	endbr64 
    be54:	68 e2 00 00 00       	push   0xe2
    be59:	f2 e9 c1 f1 ff ff    	bnd jmp b020 <_init+0x20>
    be5f:	90                   	nop
    be60:	f3 0f 1e fa          	endbr64 
    be64:	68 e3 00 00 00       	push   0xe3
    be69:	f2 e9 b1 f1 ff ff    	bnd jmp b020 <_init+0x20>
    be6f:	90                   	nop
    be70:	f3 0f 1e fa          	endbr64 
    be74:	68 e4 00 00 00       	push   0xe4
    be79:	f2 e9 a1 f1 ff ff    	bnd jmp b020 <_init+0x20>
    be7f:	90                   	nop
    be80:	f3 0f 1e fa          	endbr64 
    be84:	68 e5 00 00 00       	push   0xe5
    be89:	f2 e9 91 f1 ff ff    	bnd jmp b020 <_init+0x20>
    be8f:	90                   	nop
    be90:	f3 0f 1e fa          	endbr64 
    be94:	68 e6 00 00 00       	push   0xe6
    be99:	f2 e9 81 f1 ff ff    	bnd jmp b020 <_init+0x20>
    be9f:	90                   	nop
    bea0:	f3 0f 1e fa          	endbr64 
    bea4:	68 e7 00 00 00       	push   0xe7
    bea9:	f2 e9 71 f1 ff ff    	bnd jmp b020 <_init+0x20>
    beaf:	90                   	nop
    beb0:	f3 0f 1e fa          	endbr64 
    beb4:	68 e8 00 00 00       	push   0xe8
    beb9:	f2 e9 61 f1 ff ff    	bnd jmp b020 <_init+0x20>
    bebf:	90                   	nop
    bec0:	f3 0f 1e fa          	endbr64 
    bec4:	68 e9 00 00 00       	push   0xe9
    bec9:	f2 e9 51 f1 ff ff    	bnd jmp b020 <_init+0x20>
    becf:	90                   	nop
    bed0:	f3 0f 1e fa          	endbr64 
    bed4:	68 ea 00 00 00       	push   0xea
    bed9:	f2 e9 41 f1 ff ff    	bnd jmp b020 <_init+0x20>
    bedf:	90                   	nop
    bee0:	f3 0f 1e fa          	endbr64 
    bee4:	68 eb 00 00 00       	push   0xeb
    bee9:	f2 e9 31 f1 ff ff    	bnd jmp b020 <_init+0x20>
    beef:	90                   	nop
    bef0:	f3 0f 1e fa          	endbr64 
    bef4:	68 ec 00 00 00       	push   0xec
    bef9:	f2 e9 21 f1 ff ff    	bnd jmp b020 <_init+0x20>
    beff:	90                   	nop
    bf00:	f3 0f 1e fa          	endbr64 
    bf04:	68 ed 00 00 00       	push   0xed
    bf09:	f2 e9 11 f1 ff ff    	bnd jmp b020 <_init+0x20>
    bf0f:	90                   	nop
    bf10:	f3 0f 1e fa          	endbr64 
    bf14:	68 ee 00 00 00       	push   0xee
    bf19:	f2 e9 01 f1 ff ff    	bnd jmp b020 <_init+0x20>
    bf1f:	90                   	nop
    bf20:	f3 0f 1e fa          	endbr64 
    bf24:	68 ef 00 00 00       	push   0xef
    bf29:	f2 e9 f1 f0 ff ff    	bnd jmp b020 <_init+0x20>
    bf2f:	90                   	nop
    bf30:	f3 0f 1e fa          	endbr64 
    bf34:	68 f0 00 00 00       	push   0xf0
    bf39:	f2 e9 e1 f0 ff ff    	bnd jmp b020 <_init+0x20>
    bf3f:	90                   	nop
    bf40:	f3 0f 1e fa          	endbr64 
    bf44:	68 f1 00 00 00       	push   0xf1
    bf49:	f2 e9 d1 f0 ff ff    	bnd jmp b020 <_init+0x20>
    bf4f:	90                   	nop
    bf50:	f3 0f 1e fa          	endbr64 
    bf54:	68 f2 00 00 00       	push   0xf2
    bf59:	f2 e9 c1 f0 ff ff    	bnd jmp b020 <_init+0x20>
    bf5f:	90                   	nop
    bf60:	f3 0f 1e fa          	endbr64 
    bf64:	68 f3 00 00 00       	push   0xf3
    bf69:	f2 e9 b1 f0 ff ff    	bnd jmp b020 <_init+0x20>
    bf6f:	90                   	nop
    bf70:	f3 0f 1e fa          	endbr64 
    bf74:	68 f4 00 00 00       	push   0xf4
    bf79:	f2 e9 a1 f0 ff ff    	bnd jmp b020 <_init+0x20>
    bf7f:	90                   	nop
    bf80:	f3 0f 1e fa          	endbr64 
    bf84:	68 f5 00 00 00       	push   0xf5
    bf89:	f2 e9 91 f0 ff ff    	bnd jmp b020 <_init+0x20>
    bf8f:	90                   	nop
    bf90:	f3 0f 1e fa          	endbr64 
    bf94:	68 f6 00 00 00       	push   0xf6
    bf99:	f2 e9 81 f0 ff ff    	bnd jmp b020 <_init+0x20>
    bf9f:	90                   	nop
    bfa0:	f3 0f 1e fa          	endbr64 
    bfa4:	68 f7 00 00 00       	push   0xf7
    bfa9:	f2 e9 71 f0 ff ff    	bnd jmp b020 <_init+0x20>
    bfaf:	90                   	nop
    bfb0:	f3 0f 1e fa          	endbr64 
    bfb4:	68 f8 00 00 00       	push   0xf8
    bfb9:	f2 e9 61 f0 ff ff    	bnd jmp b020 <_init+0x20>
    bfbf:	90                   	nop
    bfc0:	f3 0f 1e fa          	endbr64 
    bfc4:	68 f9 00 00 00       	push   0xf9
    bfc9:	f2 e9 51 f0 ff ff    	bnd jmp b020 <_init+0x20>
    bfcf:	90                   	nop
    bfd0:	f3 0f 1e fa          	endbr64 
    bfd4:	68 fa 00 00 00       	push   0xfa
    bfd9:	f2 e9 41 f0 ff ff    	bnd jmp b020 <_init+0x20>
    bfdf:	90                   	nop
    bfe0:	f3 0f 1e fa          	endbr64 
    bfe4:	68 fb 00 00 00       	push   0xfb
    bfe9:	f2 e9 31 f0 ff ff    	bnd jmp b020 <_init+0x20>
    bfef:	90                   	nop
    bff0:	f3 0f 1e fa          	endbr64 
    bff4:	68 fc 00 00 00       	push   0xfc
    bff9:	f2 e9 21 f0 ff ff    	bnd jmp b020 <_init+0x20>
    bfff:	90                   	nop
    c000:	f3 0f 1e fa          	endbr64 
    c004:	68 fd 00 00 00       	push   0xfd
    c009:	f2 e9 11 f0 ff ff    	bnd jmp b020 <_init+0x20>
    c00f:	90                   	nop
    c010:	f3 0f 1e fa          	endbr64 
    c014:	68 fe 00 00 00       	push   0xfe
    c019:	f2 e9 01 f0 ff ff    	bnd jmp b020 <_init+0x20>
    c01f:	90                   	nop
    c020:	f3 0f 1e fa          	endbr64 
    c024:	68 ff 00 00 00       	push   0xff
    c029:	f2 e9 f1 ef ff ff    	bnd jmp b020 <_init+0x20>
    c02f:	90                   	nop
    c030:	f3 0f 1e fa          	endbr64 
    c034:	68 00 01 00 00       	push   0x100
    c039:	f2 e9 e1 ef ff ff    	bnd jmp b020 <_init+0x20>
    c03f:	90                   	nop
    c040:	f3 0f 1e fa          	endbr64 
    c044:	68 01 01 00 00       	push   0x101
    c049:	f2 e9 d1 ef ff ff    	bnd jmp b020 <_init+0x20>
    c04f:	90                   	nop
    c050:	f3 0f 1e fa          	endbr64 
    c054:	68 02 01 00 00       	push   0x102
    c059:	f2 e9 c1 ef ff ff    	bnd jmp b020 <_init+0x20>
    c05f:	90                   	nop
    c060:	f3 0f 1e fa          	endbr64 
    c064:	68 03 01 00 00       	push   0x103
    c069:	f2 e9 b1 ef ff ff    	bnd jmp b020 <_init+0x20>
    c06f:	90                   	nop
    c070:	f3 0f 1e fa          	endbr64 
    c074:	68 04 01 00 00       	push   0x104
    c079:	f2 e9 a1 ef ff ff    	bnd jmp b020 <_init+0x20>
    c07f:	90                   	nop
    c080:	f3 0f 1e fa          	endbr64 
    c084:	68 05 01 00 00       	push   0x105
    c089:	f2 e9 91 ef ff ff    	bnd jmp b020 <_init+0x20>
    c08f:	90                   	nop
    c090:	f3 0f 1e fa          	endbr64 
    c094:	68 06 01 00 00       	push   0x106
    c099:	f2 e9 81 ef ff ff    	bnd jmp b020 <_init+0x20>
    c09f:	90                   	nop
    c0a0:	f3 0f 1e fa          	endbr64 
    c0a4:	68 07 01 00 00       	push   0x107
    c0a9:	f2 e9 71 ef ff ff    	bnd jmp b020 <_init+0x20>
    c0af:	90                   	nop
    c0b0:	f3 0f 1e fa          	endbr64 
    c0b4:	68 08 01 00 00       	push   0x108
    c0b9:	f2 e9 61 ef ff ff    	bnd jmp b020 <_init+0x20>
    c0bf:	90                   	nop
    c0c0:	f3 0f 1e fa          	endbr64 
    c0c4:	68 09 01 00 00       	push   0x109
    c0c9:	f2 e9 51 ef ff ff    	bnd jmp b020 <_init+0x20>
    c0cf:	90                   	nop
    c0d0:	f3 0f 1e fa          	endbr64 
    c0d4:	68 0a 01 00 00       	push   0x10a
    c0d9:	f2 e9 41 ef ff ff    	bnd jmp b020 <_init+0x20>
    c0df:	90                   	nop
    c0e0:	f3 0f 1e fa          	endbr64 
    c0e4:	68 0b 01 00 00       	push   0x10b
    c0e9:	f2 e9 31 ef ff ff    	bnd jmp b020 <_init+0x20>
    c0ef:	90                   	nop
    c0f0:	f3 0f 1e fa          	endbr64 
    c0f4:	68 0c 01 00 00       	push   0x10c
    c0f9:	f2 e9 21 ef ff ff    	bnd jmp b020 <_init+0x20>
    c0ff:	90                   	nop
    c100:	f3 0f 1e fa          	endbr64 
    c104:	68 0d 01 00 00       	push   0x10d
    c109:	f2 e9 11 ef ff ff    	bnd jmp b020 <_init+0x20>
    c10f:	90                   	nop
    c110:	f3 0f 1e fa          	endbr64 
    c114:	68 0e 01 00 00       	push   0x10e
    c119:	f2 e9 01 ef ff ff    	bnd jmp b020 <_init+0x20>
    c11f:	90                   	nop
    c120:	f3 0f 1e fa          	endbr64 
    c124:	68 0f 01 00 00       	push   0x10f
    c129:	f2 e9 f1 ee ff ff    	bnd jmp b020 <_init+0x20>
    c12f:	90                   	nop
    c130:	f3 0f 1e fa          	endbr64 
    c134:	68 10 01 00 00       	push   0x110
    c139:	f2 e9 e1 ee ff ff    	bnd jmp b020 <_init+0x20>
    c13f:	90                   	nop
    c140:	f3 0f 1e fa          	endbr64 
    c144:	68 11 01 00 00       	push   0x111
    c149:	f2 e9 d1 ee ff ff    	bnd jmp b020 <_init+0x20>
    c14f:	90                   	nop
    c150:	f3 0f 1e fa          	endbr64 
    c154:	68 12 01 00 00       	push   0x112
    c159:	f2 e9 c1 ee ff ff    	bnd jmp b020 <_init+0x20>
    c15f:	90                   	nop
    c160:	f3 0f 1e fa          	endbr64 
    c164:	68 13 01 00 00       	push   0x113
    c169:	f2 e9 b1 ee ff ff    	bnd jmp b020 <_init+0x20>
    c16f:	90                   	nop
    c170:	f3 0f 1e fa          	endbr64 
    c174:	68 14 01 00 00       	push   0x114
    c179:	f2 e9 a1 ee ff ff    	bnd jmp b020 <_init+0x20>
    c17f:	90                   	nop
    c180:	f3 0f 1e fa          	endbr64 
    c184:	68 15 01 00 00       	push   0x115
    c189:	f2 e9 91 ee ff ff    	bnd jmp b020 <_init+0x20>
    c18f:	90                   	nop
    c190:	f3 0f 1e fa          	endbr64 
    c194:	68 16 01 00 00       	push   0x116
    c199:	f2 e9 81 ee ff ff    	bnd jmp b020 <_init+0x20>
    c19f:	90                   	nop
    c1a0:	f3 0f 1e fa          	endbr64 
    c1a4:	68 17 01 00 00       	push   0x117
    c1a9:	f2 e9 71 ee ff ff    	bnd jmp b020 <_init+0x20>
    c1af:	90                   	nop
    c1b0:	f3 0f 1e fa          	endbr64 
    c1b4:	68 18 01 00 00       	push   0x118
    c1b9:	f2 e9 61 ee ff ff    	bnd jmp b020 <_init+0x20>
    c1bf:	90                   	nop
    c1c0:	f3 0f 1e fa          	endbr64 
    c1c4:	68 19 01 00 00       	push   0x119
    c1c9:	f2 e9 51 ee ff ff    	bnd jmp b020 <_init+0x20>
    c1cf:	90                   	nop
    c1d0:	f3 0f 1e fa          	endbr64 
    c1d4:	68 1a 01 00 00       	push   0x11a
    c1d9:	f2 e9 41 ee ff ff    	bnd jmp b020 <_init+0x20>
    c1df:	90                   	nop
    c1e0:	f3 0f 1e fa          	endbr64 
    c1e4:	68 1b 01 00 00       	push   0x11b
    c1e9:	f2 e9 31 ee ff ff    	bnd jmp b020 <_init+0x20>
    c1ef:	90                   	nop
    c1f0:	f3 0f 1e fa          	endbr64 
    c1f4:	68 1c 01 00 00       	push   0x11c
    c1f9:	f2 e9 21 ee ff ff    	bnd jmp b020 <_init+0x20>
    c1ff:	90                   	nop
    c200:	f3 0f 1e fa          	endbr64 
    c204:	68 1d 01 00 00       	push   0x11d
    c209:	f2 e9 11 ee ff ff    	bnd jmp b020 <_init+0x20>
    c20f:	90                   	nop
    c210:	f3 0f 1e fa          	endbr64 
    c214:	68 1e 01 00 00       	push   0x11e
    c219:	f2 e9 01 ee ff ff    	bnd jmp b020 <_init+0x20>
    c21f:	90                   	nop
    c220:	f3 0f 1e fa          	endbr64 
    c224:	68 1f 01 00 00       	push   0x11f
    c229:	f2 e9 f1 ed ff ff    	bnd jmp b020 <_init+0x20>
    c22f:	90                   	nop
    c230:	f3 0f 1e fa          	endbr64 
    c234:	68 20 01 00 00       	push   0x120
    c239:	f2 e9 e1 ed ff ff    	bnd jmp b020 <_init+0x20>
    c23f:	90                   	nop
    c240:	f3 0f 1e fa          	endbr64 
    c244:	68 21 01 00 00       	push   0x121
    c249:	f2 e9 d1 ed ff ff    	bnd jmp b020 <_init+0x20>
    c24f:	90                   	nop
    c250:	f3 0f 1e fa          	endbr64 
    c254:	68 22 01 00 00       	push   0x122
    c259:	f2 e9 c1 ed ff ff    	bnd jmp b020 <_init+0x20>
    c25f:	90                   	nop
    c260:	f3 0f 1e fa          	endbr64 
    c264:	68 23 01 00 00       	push   0x123
    c269:	f2 e9 b1 ed ff ff    	bnd jmp b020 <_init+0x20>
    c26f:	90                   	nop
    c270:	f3 0f 1e fa          	endbr64 
    c274:	68 24 01 00 00       	push   0x124
    c279:	f2 e9 a1 ed ff ff    	bnd jmp b020 <_init+0x20>
    c27f:	90                   	nop
    c280:	f3 0f 1e fa          	endbr64 
    c284:	68 25 01 00 00       	push   0x125
    c289:	f2 e9 91 ed ff ff    	bnd jmp b020 <_init+0x20>
    c28f:	90                   	nop
    c290:	f3 0f 1e fa          	endbr64 
    c294:	68 26 01 00 00       	push   0x126
    c299:	f2 e9 81 ed ff ff    	bnd jmp b020 <_init+0x20>
    c29f:	90                   	nop
    c2a0:	f3 0f 1e fa          	endbr64 
    c2a4:	68 27 01 00 00       	push   0x127
    c2a9:	f2 e9 71 ed ff ff    	bnd jmp b020 <_init+0x20>
    c2af:	90                   	nop
    c2b0:	f3 0f 1e fa          	endbr64 
    c2b4:	68 28 01 00 00       	push   0x128
    c2b9:	f2 e9 61 ed ff ff    	bnd jmp b020 <_init+0x20>
    c2bf:	90                   	nop
    c2c0:	f3 0f 1e fa          	endbr64 
    c2c4:	68 29 01 00 00       	push   0x129
    c2c9:	f2 e9 51 ed ff ff    	bnd jmp b020 <_init+0x20>
    c2cf:	90                   	nop
    c2d0:	f3 0f 1e fa          	endbr64 
    c2d4:	68 2a 01 00 00       	push   0x12a
    c2d9:	f2 e9 41 ed ff ff    	bnd jmp b020 <_init+0x20>
    c2df:	90                   	nop
    c2e0:	f3 0f 1e fa          	endbr64 
    c2e4:	68 2b 01 00 00       	push   0x12b
    c2e9:	f2 e9 31 ed ff ff    	bnd jmp b020 <_init+0x20>
    c2ef:	90                   	nop
    c2f0:	f3 0f 1e fa          	endbr64 
    c2f4:	68 2c 01 00 00       	push   0x12c
    c2f9:	f2 e9 21 ed ff ff    	bnd jmp b020 <_init+0x20>
    c2ff:	90                   	nop
    c300:	f3 0f 1e fa          	endbr64 
    c304:	68 2d 01 00 00       	push   0x12d
    c309:	f2 e9 11 ed ff ff    	bnd jmp b020 <_init+0x20>
    c30f:	90                   	nop
    c310:	f3 0f 1e fa          	endbr64 
    c314:	68 2e 01 00 00       	push   0x12e
    c319:	f2 e9 01 ed ff ff    	bnd jmp b020 <_init+0x20>
    c31f:	90                   	nop
    c320:	f3 0f 1e fa          	endbr64 
    c324:	68 2f 01 00 00       	push   0x12f
    c329:	f2 e9 f1 ec ff ff    	bnd jmp b020 <_init+0x20>
    c32f:	90                   	nop
    c330:	f3 0f 1e fa          	endbr64 
    c334:	68 30 01 00 00       	push   0x130
    c339:	f2 e9 e1 ec ff ff    	bnd jmp b020 <_init+0x20>
    c33f:	90                   	nop
    c340:	f3 0f 1e fa          	endbr64 
    c344:	68 31 01 00 00       	push   0x131
    c349:	f2 e9 d1 ec ff ff    	bnd jmp b020 <_init+0x20>
    c34f:	90                   	nop
    c350:	f3 0f 1e fa          	endbr64 
    c354:	68 32 01 00 00       	push   0x132
    c359:	f2 e9 c1 ec ff ff    	bnd jmp b020 <_init+0x20>
    c35f:	90                   	nop
    c360:	f3 0f 1e fa          	endbr64 
    c364:	68 33 01 00 00       	push   0x133
    c369:	f2 e9 b1 ec ff ff    	bnd jmp b020 <_init+0x20>
    c36f:	90                   	nop
    c370:	f3 0f 1e fa          	endbr64 
    c374:	68 34 01 00 00       	push   0x134
    c379:	f2 e9 a1 ec ff ff    	bnd jmp b020 <_init+0x20>
    c37f:	90                   	nop
    c380:	f3 0f 1e fa          	endbr64 
    c384:	68 35 01 00 00       	push   0x135
    c389:	f2 e9 91 ec ff ff    	bnd jmp b020 <_init+0x20>
    c38f:	90                   	nop
    c390:	f3 0f 1e fa          	endbr64 
    c394:	68 36 01 00 00       	push   0x136
    c399:	f2 e9 81 ec ff ff    	bnd jmp b020 <_init+0x20>
    c39f:	90                   	nop
    c3a0:	f3 0f 1e fa          	endbr64 
    c3a4:	68 37 01 00 00       	push   0x137
    c3a9:	f2 e9 71 ec ff ff    	bnd jmp b020 <_init+0x20>
    c3af:	90                   	nop
    c3b0:	f3 0f 1e fa          	endbr64 
    c3b4:	68 38 01 00 00       	push   0x138
    c3b9:	f2 e9 61 ec ff ff    	bnd jmp b020 <_init+0x20>
    c3bf:	90                   	nop
    c3c0:	f3 0f 1e fa          	endbr64 
    c3c4:	68 39 01 00 00       	push   0x139
    c3c9:	f2 e9 51 ec ff ff    	bnd jmp b020 <_init+0x20>
    c3cf:	90                   	nop
    c3d0:	f3 0f 1e fa          	endbr64 
    c3d4:	68 3a 01 00 00       	push   0x13a
    c3d9:	f2 e9 41 ec ff ff    	bnd jmp b020 <_init+0x20>
    c3df:	90                   	nop
    c3e0:	f3 0f 1e fa          	endbr64 
    c3e4:	68 3b 01 00 00       	push   0x13b
    c3e9:	f2 e9 31 ec ff ff    	bnd jmp b020 <_init+0x20>
    c3ef:	90                   	nop
    c3f0:	f3 0f 1e fa          	endbr64 
    c3f4:	68 3c 01 00 00       	push   0x13c
    c3f9:	f2 e9 21 ec ff ff    	bnd jmp b020 <_init+0x20>
    c3ff:	90                   	nop
    c400:	f3 0f 1e fa          	endbr64 
    c404:	68 3d 01 00 00       	push   0x13d
    c409:	f2 e9 11 ec ff ff    	bnd jmp b020 <_init+0x20>
    c40f:	90                   	nop
    c410:	f3 0f 1e fa          	endbr64 
    c414:	68 3e 01 00 00       	push   0x13e
    c419:	f2 e9 01 ec ff ff    	bnd jmp b020 <_init+0x20>
    c41f:	90                   	nop
    c420:	f3 0f 1e fa          	endbr64 
    c424:	68 3f 01 00 00       	push   0x13f
    c429:	f2 e9 f1 eb ff ff    	bnd jmp b020 <_init+0x20>
    c42f:	90                   	nop
    c430:	f3 0f 1e fa          	endbr64 
    c434:	68 40 01 00 00       	push   0x140
    c439:	f2 e9 e1 eb ff ff    	bnd jmp b020 <_init+0x20>
    c43f:	90                   	nop
    c440:	f3 0f 1e fa          	endbr64 
    c444:	68 41 01 00 00       	push   0x141
    c449:	f2 e9 d1 eb ff ff    	bnd jmp b020 <_init+0x20>
    c44f:	90                   	nop
    c450:	f3 0f 1e fa          	endbr64 
    c454:	68 42 01 00 00       	push   0x142
    c459:	f2 e9 c1 eb ff ff    	bnd jmp b020 <_init+0x20>
    c45f:	90                   	nop
    c460:	f3 0f 1e fa          	endbr64 
    c464:	68 43 01 00 00       	push   0x143
    c469:	f2 e9 b1 eb ff ff    	bnd jmp b020 <_init+0x20>
    c46f:	90                   	nop
    c470:	f3 0f 1e fa          	endbr64 
    c474:	68 44 01 00 00       	push   0x144
    c479:	f2 e9 a1 eb ff ff    	bnd jmp b020 <_init+0x20>
    c47f:	90                   	nop
    c480:	f3 0f 1e fa          	endbr64 
    c484:	68 45 01 00 00       	push   0x145
    c489:	f2 e9 91 eb ff ff    	bnd jmp b020 <_init+0x20>
    c48f:	90                   	nop
    c490:	f3 0f 1e fa          	endbr64 
    c494:	68 46 01 00 00       	push   0x146
    c499:	f2 e9 81 eb ff ff    	bnd jmp b020 <_init+0x20>
    c49f:	90                   	nop
    c4a0:	f3 0f 1e fa          	endbr64 
    c4a4:	68 47 01 00 00       	push   0x147
    c4a9:	f2 e9 71 eb ff ff    	bnd jmp b020 <_init+0x20>
    c4af:	90                   	nop
    c4b0:	f3 0f 1e fa          	endbr64 
    c4b4:	68 48 01 00 00       	push   0x148
    c4b9:	f2 e9 61 eb ff ff    	bnd jmp b020 <_init+0x20>
    c4bf:	90                   	nop
    c4c0:	f3 0f 1e fa          	endbr64 
    c4c4:	68 49 01 00 00       	push   0x149
    c4c9:	f2 e9 51 eb ff ff    	bnd jmp b020 <_init+0x20>
    c4cf:	90                   	nop
    c4d0:	f3 0f 1e fa          	endbr64 
    c4d4:	68 4a 01 00 00       	push   0x14a
    c4d9:	f2 e9 41 eb ff ff    	bnd jmp b020 <_init+0x20>
    c4df:	90                   	nop
    c4e0:	f3 0f 1e fa          	endbr64 
    c4e4:	68 4b 01 00 00       	push   0x14b
    c4e9:	f2 e9 31 eb ff ff    	bnd jmp b020 <_init+0x20>
    c4ef:	90                   	nop
    c4f0:	f3 0f 1e fa          	endbr64 
    c4f4:	68 4c 01 00 00       	push   0x14c
    c4f9:	f2 e9 21 eb ff ff    	bnd jmp b020 <_init+0x20>
    c4ff:	90                   	nop
    c500:	f3 0f 1e fa          	endbr64 
    c504:	68 4d 01 00 00       	push   0x14d
    c509:	f2 e9 11 eb ff ff    	bnd jmp b020 <_init+0x20>
    c50f:	90                   	nop
    c510:	f3 0f 1e fa          	endbr64 
    c514:	68 4e 01 00 00       	push   0x14e
    c519:	f2 e9 01 eb ff ff    	bnd jmp b020 <_init+0x20>
    c51f:	90                   	nop
    c520:	f3 0f 1e fa          	endbr64 
    c524:	68 4f 01 00 00       	push   0x14f
    c529:	f2 e9 f1 ea ff ff    	bnd jmp b020 <_init+0x20>
    c52f:	90                   	nop
    c530:	f3 0f 1e fa          	endbr64 
    c534:	68 50 01 00 00       	push   0x150
    c539:	f2 e9 e1 ea ff ff    	bnd jmp b020 <_init+0x20>
    c53f:	90                   	nop
    c540:	f3 0f 1e fa          	endbr64 
    c544:	68 51 01 00 00       	push   0x151
    c549:	f2 e9 d1 ea ff ff    	bnd jmp b020 <_init+0x20>
    c54f:	90                   	nop
    c550:	f3 0f 1e fa          	endbr64 
    c554:	68 52 01 00 00       	push   0x152
    c559:	f2 e9 c1 ea ff ff    	bnd jmp b020 <_init+0x20>
    c55f:	90                   	nop
    c560:	f3 0f 1e fa          	endbr64 
    c564:	68 53 01 00 00       	push   0x153
    c569:	f2 e9 b1 ea ff ff    	bnd jmp b020 <_init+0x20>
    c56f:	90                   	nop
    c570:	f3 0f 1e fa          	endbr64 
    c574:	68 54 01 00 00       	push   0x154
    c579:	f2 e9 a1 ea ff ff    	bnd jmp b020 <_init+0x20>
    c57f:	90                   	nop
    c580:	f3 0f 1e fa          	endbr64 
    c584:	68 55 01 00 00       	push   0x155
    c589:	f2 e9 91 ea ff ff    	bnd jmp b020 <_init+0x20>
    c58f:	90                   	nop
    c590:	f3 0f 1e fa          	endbr64 
    c594:	68 56 01 00 00       	push   0x156
    c599:	f2 e9 81 ea ff ff    	bnd jmp b020 <_init+0x20>
    c59f:	90                   	nop
    c5a0:	f3 0f 1e fa          	endbr64 
    c5a4:	68 57 01 00 00       	push   0x157
    c5a9:	f2 e9 71 ea ff ff    	bnd jmp b020 <_init+0x20>
    c5af:	90                   	nop
    c5b0:	f3 0f 1e fa          	endbr64 
    c5b4:	68 58 01 00 00       	push   0x158
    c5b9:	f2 e9 61 ea ff ff    	bnd jmp b020 <_init+0x20>
    c5bf:	90                   	nop
    c5c0:	f3 0f 1e fa          	endbr64 
    c5c4:	68 59 01 00 00       	push   0x159
    c5c9:	f2 e9 51 ea ff ff    	bnd jmp b020 <_init+0x20>
    c5cf:	90                   	nop
    c5d0:	f3 0f 1e fa          	endbr64 
    c5d4:	68 5a 01 00 00       	push   0x15a
    c5d9:	f2 e9 41 ea ff ff    	bnd jmp b020 <_init+0x20>
    c5df:	90                   	nop
    c5e0:	f3 0f 1e fa          	endbr64 
    c5e4:	68 5b 01 00 00       	push   0x15b
    c5e9:	f2 e9 31 ea ff ff    	bnd jmp b020 <_init+0x20>
    c5ef:	90                   	nop
    c5f0:	f3 0f 1e fa          	endbr64 
    c5f4:	68 5c 01 00 00       	push   0x15c
    c5f9:	f2 e9 21 ea ff ff    	bnd jmp b020 <_init+0x20>
    c5ff:	90                   	nop
    c600:	f3 0f 1e fa          	endbr64 
    c604:	68 5d 01 00 00       	push   0x15d
    c609:	f2 e9 11 ea ff ff    	bnd jmp b020 <_init+0x20>
    c60f:	90                   	nop
    c610:	f3 0f 1e fa          	endbr64 
    c614:	68 5e 01 00 00       	push   0x15e
    c619:	f2 e9 01 ea ff ff    	bnd jmp b020 <_init+0x20>
    c61f:	90                   	nop
    c620:	f3 0f 1e fa          	endbr64 
    c624:	68 5f 01 00 00       	push   0x15f
    c629:	f2 e9 f1 e9 ff ff    	bnd jmp b020 <_init+0x20>
    c62f:	90                   	nop
    c630:	f3 0f 1e fa          	endbr64 
    c634:	68 60 01 00 00       	push   0x160
    c639:	f2 e9 e1 e9 ff ff    	bnd jmp b020 <_init+0x20>
    c63f:	90                   	nop
    c640:	f3 0f 1e fa          	endbr64 
    c644:	68 61 01 00 00       	push   0x161
    c649:	f2 e9 d1 e9 ff ff    	bnd jmp b020 <_init+0x20>
    c64f:	90                   	nop
    c650:	f3 0f 1e fa          	endbr64 
    c654:	68 62 01 00 00       	push   0x162
    c659:	f2 e9 c1 e9 ff ff    	bnd jmp b020 <_init+0x20>
    c65f:	90                   	nop
    c660:	f3 0f 1e fa          	endbr64 
    c664:	68 63 01 00 00       	push   0x163
    c669:	f2 e9 b1 e9 ff ff    	bnd jmp b020 <_init+0x20>
    c66f:	90                   	nop
    c670:	f3 0f 1e fa          	endbr64 
    c674:	68 64 01 00 00       	push   0x164
    c679:	f2 e9 a1 e9 ff ff    	bnd jmp b020 <_init+0x20>
    c67f:	90                   	nop
    c680:	f3 0f 1e fa          	endbr64 
    c684:	68 65 01 00 00       	push   0x165
    c689:	f2 e9 91 e9 ff ff    	bnd jmp b020 <_init+0x20>
    c68f:	90                   	nop
    c690:	f3 0f 1e fa          	endbr64 
    c694:	68 66 01 00 00       	push   0x166
    c699:	f2 e9 81 e9 ff ff    	bnd jmp b020 <_init+0x20>
    c69f:	90                   	nop
    c6a0:	f3 0f 1e fa          	endbr64 
    c6a4:	68 67 01 00 00       	push   0x167
    c6a9:	f2 e9 71 e9 ff ff    	bnd jmp b020 <_init+0x20>
    c6af:	90                   	nop
    c6b0:	f3 0f 1e fa          	endbr64 
    c6b4:	68 68 01 00 00       	push   0x168
    c6b9:	f2 e9 61 e9 ff ff    	bnd jmp b020 <_init+0x20>
    c6bf:	90                   	nop
    c6c0:	f3 0f 1e fa          	endbr64 
    c6c4:	68 69 01 00 00       	push   0x169
    c6c9:	f2 e9 51 e9 ff ff    	bnd jmp b020 <_init+0x20>
    c6cf:	90                   	nop
    c6d0:	f3 0f 1e fa          	endbr64 
    c6d4:	68 6a 01 00 00       	push   0x16a
    c6d9:	f2 e9 41 e9 ff ff    	bnd jmp b020 <_init+0x20>
    c6df:	90                   	nop
    c6e0:	f3 0f 1e fa          	endbr64 
    c6e4:	68 6b 01 00 00       	push   0x16b
    c6e9:	f2 e9 31 e9 ff ff    	bnd jmp b020 <_init+0x20>
    c6ef:	90                   	nop
    c6f0:	f3 0f 1e fa          	endbr64 
    c6f4:	68 6c 01 00 00       	push   0x16c
    c6f9:	f2 e9 21 e9 ff ff    	bnd jmp b020 <_init+0x20>
    c6ff:	90                   	nop
    c700:	f3 0f 1e fa          	endbr64 
    c704:	68 6d 01 00 00       	push   0x16d
    c709:	f2 e9 11 e9 ff ff    	bnd jmp b020 <_init+0x20>
    c70f:	90                   	nop
    c710:	f3 0f 1e fa          	endbr64 
    c714:	68 6e 01 00 00       	push   0x16e
    c719:	f2 e9 01 e9 ff ff    	bnd jmp b020 <_init+0x20>
    c71f:	90                   	nop
    c720:	f3 0f 1e fa          	endbr64 
    c724:	68 6f 01 00 00       	push   0x16f
    c729:	f2 e9 f1 e8 ff ff    	bnd jmp b020 <_init+0x20>
    c72f:	90                   	nop
    c730:	f3 0f 1e fa          	endbr64 
    c734:	68 70 01 00 00       	push   0x170
    c739:	f2 e9 e1 e8 ff ff    	bnd jmp b020 <_init+0x20>
    c73f:	90                   	nop
    c740:	f3 0f 1e fa          	endbr64 
    c744:	68 71 01 00 00       	push   0x171
    c749:	f2 e9 d1 e8 ff ff    	bnd jmp b020 <_init+0x20>
    c74f:	90                   	nop
    c750:	f3 0f 1e fa          	endbr64 
    c754:	68 72 01 00 00       	push   0x172
    c759:	f2 e9 c1 e8 ff ff    	bnd jmp b020 <_init+0x20>
    c75f:	90                   	nop
    c760:	f3 0f 1e fa          	endbr64 
    c764:	68 73 01 00 00       	push   0x173
    c769:	f2 e9 b1 e8 ff ff    	bnd jmp b020 <_init+0x20>
    c76f:	90                   	nop
    c770:	f3 0f 1e fa          	endbr64 
    c774:	68 74 01 00 00       	push   0x174
    c779:	f2 e9 a1 e8 ff ff    	bnd jmp b020 <_init+0x20>
    c77f:	90                   	nop
    c780:	f3 0f 1e fa          	endbr64 
    c784:	68 75 01 00 00       	push   0x175
    c789:	f2 e9 91 e8 ff ff    	bnd jmp b020 <_init+0x20>
    c78f:	90                   	nop
    c790:	f3 0f 1e fa          	endbr64 
    c794:	68 76 01 00 00       	push   0x176
    c799:	f2 e9 81 e8 ff ff    	bnd jmp b020 <_init+0x20>
    c79f:	90                   	nop
    c7a0:	f3 0f 1e fa          	endbr64 
    c7a4:	68 77 01 00 00       	push   0x177
    c7a9:	f2 e9 71 e8 ff ff    	bnd jmp b020 <_init+0x20>
    c7af:	90                   	nop
    c7b0:	f3 0f 1e fa          	endbr64 
    c7b4:	68 78 01 00 00       	push   0x178
    c7b9:	f2 e9 61 e8 ff ff    	bnd jmp b020 <_init+0x20>
    c7bf:	90                   	nop
    c7c0:	f3 0f 1e fa          	endbr64 
    c7c4:	68 79 01 00 00       	push   0x179
    c7c9:	f2 e9 51 e8 ff ff    	bnd jmp b020 <_init+0x20>
    c7cf:	90                   	nop
    c7d0:	f3 0f 1e fa          	endbr64 
    c7d4:	68 7a 01 00 00       	push   0x17a
    c7d9:	f2 e9 41 e8 ff ff    	bnd jmp b020 <_init+0x20>
    c7df:	90                   	nop
    c7e0:	f3 0f 1e fa          	endbr64 
    c7e4:	68 7b 01 00 00       	push   0x17b
    c7e9:	f2 e9 31 e8 ff ff    	bnd jmp b020 <_init+0x20>
    c7ef:	90                   	nop
    c7f0:	f3 0f 1e fa          	endbr64 
    c7f4:	68 7c 01 00 00       	push   0x17c
    c7f9:	f2 e9 21 e8 ff ff    	bnd jmp b020 <_init+0x20>
    c7ff:	90                   	nop
    c800:	f3 0f 1e fa          	endbr64 
    c804:	68 7d 01 00 00       	push   0x17d
    c809:	f2 e9 11 e8 ff ff    	bnd jmp b020 <_init+0x20>
    c80f:	90                   	nop
    c810:	f3 0f 1e fa          	endbr64 
    c814:	68 7e 01 00 00       	push   0x17e
    c819:	f2 e9 01 e8 ff ff    	bnd jmp b020 <_init+0x20>
    c81f:	90                   	nop
    c820:	f3 0f 1e fa          	endbr64 
    c824:	68 7f 01 00 00       	push   0x17f
    c829:	f2 e9 f1 e7 ff ff    	bnd jmp b020 <_init+0x20>
    c82f:	90                   	nop
    c830:	f3 0f 1e fa          	endbr64 
    c834:	68 80 01 00 00       	push   0x180
    c839:	f2 e9 e1 e7 ff ff    	bnd jmp b020 <_init+0x20>
    c83f:	90                   	nop
    c840:	f3 0f 1e fa          	endbr64 
    c844:	68 81 01 00 00       	push   0x181
    c849:	f2 e9 d1 e7 ff ff    	bnd jmp b020 <_init+0x20>
    c84f:	90                   	nop
    c850:	f3 0f 1e fa          	endbr64 
    c854:	68 82 01 00 00       	push   0x182
    c859:	f2 e9 c1 e7 ff ff    	bnd jmp b020 <_init+0x20>
    c85f:	90                   	nop
    c860:	f3 0f 1e fa          	endbr64 
    c864:	68 83 01 00 00       	push   0x183
    c869:	f2 e9 b1 e7 ff ff    	bnd jmp b020 <_init+0x20>
    c86f:	90                   	nop
    c870:	f3 0f 1e fa          	endbr64 
    c874:	68 84 01 00 00       	push   0x184
    c879:	f2 e9 a1 e7 ff ff    	bnd jmp b020 <_init+0x20>
    c87f:	90                   	nop
    c880:	f3 0f 1e fa          	endbr64 
    c884:	68 85 01 00 00       	push   0x185
    c889:	f2 e9 91 e7 ff ff    	bnd jmp b020 <_init+0x20>
    c88f:	90                   	nop
    c890:	f3 0f 1e fa          	endbr64 
    c894:	68 86 01 00 00       	push   0x186
    c899:	f2 e9 81 e7 ff ff    	bnd jmp b020 <_init+0x20>
    c89f:	90                   	nop
    c8a0:	f3 0f 1e fa          	endbr64 
    c8a4:	68 87 01 00 00       	push   0x187
    c8a9:	f2 e9 71 e7 ff ff    	bnd jmp b020 <_init+0x20>
    c8af:	90                   	nop
    c8b0:	f3 0f 1e fa          	endbr64 
    c8b4:	68 88 01 00 00       	push   0x188
    c8b9:	f2 e9 61 e7 ff ff    	bnd jmp b020 <_init+0x20>
    c8bf:	90                   	nop
    c8c0:	f3 0f 1e fa          	endbr64 
    c8c4:	68 89 01 00 00       	push   0x189
    c8c9:	f2 e9 51 e7 ff ff    	bnd jmp b020 <_init+0x20>
    c8cf:	90                   	nop
    c8d0:	f3 0f 1e fa          	endbr64 
    c8d4:	68 8a 01 00 00       	push   0x18a
    c8d9:	f2 e9 41 e7 ff ff    	bnd jmp b020 <_init+0x20>
    c8df:	90                   	nop
    c8e0:	f3 0f 1e fa          	endbr64 
    c8e4:	68 8b 01 00 00       	push   0x18b
    c8e9:	f2 e9 31 e7 ff ff    	bnd jmp b020 <_init+0x20>
    c8ef:	90                   	nop
    c8f0:	f3 0f 1e fa          	endbr64 
    c8f4:	68 8c 01 00 00       	push   0x18c
    c8f9:	f2 e9 21 e7 ff ff    	bnd jmp b020 <_init+0x20>
    c8ff:	90                   	nop
    c900:	f3 0f 1e fa          	endbr64 
    c904:	68 8d 01 00 00       	push   0x18d
    c909:	f2 e9 11 e7 ff ff    	bnd jmp b020 <_init+0x20>
    c90f:	90                   	nop
    c910:	f3 0f 1e fa          	endbr64 
    c914:	68 8e 01 00 00       	push   0x18e
    c919:	f2 e9 01 e7 ff ff    	bnd jmp b020 <_init+0x20>
    c91f:	90                   	nop
    c920:	f3 0f 1e fa          	endbr64 
    c924:	68 8f 01 00 00       	push   0x18f
    c929:	f2 e9 f1 e6 ff ff    	bnd jmp b020 <_init+0x20>
    c92f:	90                   	nop
    c930:	f3 0f 1e fa          	endbr64 
    c934:	68 90 01 00 00       	push   0x190
    c939:	f2 e9 e1 e6 ff ff    	bnd jmp b020 <_init+0x20>
    c93f:	90                   	nop
    c940:	f3 0f 1e fa          	endbr64 
    c944:	68 91 01 00 00       	push   0x191
    c949:	f2 e9 d1 e6 ff ff    	bnd jmp b020 <_init+0x20>
    c94f:	90                   	nop
    c950:	f3 0f 1e fa          	endbr64 
    c954:	68 92 01 00 00       	push   0x192
    c959:	f2 e9 c1 e6 ff ff    	bnd jmp b020 <_init+0x20>
    c95f:	90                   	nop
    c960:	f3 0f 1e fa          	endbr64 
    c964:	68 93 01 00 00       	push   0x193
    c969:	f2 e9 b1 e6 ff ff    	bnd jmp b020 <_init+0x20>
    c96f:	90                   	nop
    c970:	f3 0f 1e fa          	endbr64 
    c974:	68 94 01 00 00       	push   0x194
    c979:	f2 e9 a1 e6 ff ff    	bnd jmp b020 <_init+0x20>
    c97f:	90                   	nop
    c980:	f3 0f 1e fa          	endbr64 
    c984:	68 95 01 00 00       	push   0x195
    c989:	f2 e9 91 e6 ff ff    	bnd jmp b020 <_init+0x20>
    c98f:	90                   	nop
    c990:	f3 0f 1e fa          	endbr64 
    c994:	68 96 01 00 00       	push   0x196
    c999:	f2 e9 81 e6 ff ff    	bnd jmp b020 <_init+0x20>
    c99f:	90                   	nop
    c9a0:	f3 0f 1e fa          	endbr64 
    c9a4:	68 97 01 00 00       	push   0x197
    c9a9:	f2 e9 71 e6 ff ff    	bnd jmp b020 <_init+0x20>
    c9af:	90                   	nop
    c9b0:	f3 0f 1e fa          	endbr64 
    c9b4:	68 98 01 00 00       	push   0x198
    c9b9:	f2 e9 61 e6 ff ff    	bnd jmp b020 <_init+0x20>
    c9bf:	90                   	nop
    c9c0:	f3 0f 1e fa          	endbr64 
    c9c4:	68 99 01 00 00       	push   0x199
    c9c9:	f2 e9 51 e6 ff ff    	bnd jmp b020 <_init+0x20>
    c9cf:	90                   	nop
    c9d0:	f3 0f 1e fa          	endbr64 
    c9d4:	68 9a 01 00 00       	push   0x19a
    c9d9:	f2 e9 41 e6 ff ff    	bnd jmp b020 <_init+0x20>
    c9df:	90                   	nop
    c9e0:	f3 0f 1e fa          	endbr64 
    c9e4:	68 9b 01 00 00       	push   0x19b
    c9e9:	f2 e9 31 e6 ff ff    	bnd jmp b020 <_init+0x20>
    c9ef:	90                   	nop
    c9f0:	f3 0f 1e fa          	endbr64 
    c9f4:	68 9c 01 00 00       	push   0x19c
    c9f9:	f2 e9 21 e6 ff ff    	bnd jmp b020 <_init+0x20>
    c9ff:	90                   	nop
    ca00:	f3 0f 1e fa          	endbr64 
    ca04:	68 9d 01 00 00       	push   0x19d
    ca09:	f2 e9 11 e6 ff ff    	bnd jmp b020 <_init+0x20>
    ca0f:	90                   	nop
    ca10:	f3 0f 1e fa          	endbr64 
    ca14:	68 9e 01 00 00       	push   0x19e
    ca19:	f2 e9 01 e6 ff ff    	bnd jmp b020 <_init+0x20>
    ca1f:	90                   	nop
    ca20:	f3 0f 1e fa          	endbr64 
    ca24:	68 9f 01 00 00       	push   0x19f
    ca29:	f2 e9 f1 e5 ff ff    	bnd jmp b020 <_init+0x20>
    ca2f:	90                   	nop
    ca30:	f3 0f 1e fa          	endbr64 
    ca34:	68 a0 01 00 00       	push   0x1a0
    ca39:	f2 e9 e1 e5 ff ff    	bnd jmp b020 <_init+0x20>
    ca3f:	90                   	nop
    ca40:	f3 0f 1e fa          	endbr64 
    ca44:	68 a1 01 00 00       	push   0x1a1
    ca49:	f2 e9 d1 e5 ff ff    	bnd jmp b020 <_init+0x20>
    ca4f:	90                   	nop
    ca50:	f3 0f 1e fa          	endbr64 
    ca54:	68 a2 01 00 00       	push   0x1a2
    ca59:	f2 e9 c1 e5 ff ff    	bnd jmp b020 <_init+0x20>
    ca5f:	90                   	nop
    ca60:	f3 0f 1e fa          	endbr64 
    ca64:	68 a3 01 00 00       	push   0x1a3
    ca69:	f2 e9 b1 e5 ff ff    	bnd jmp b020 <_init+0x20>
    ca6f:	90                   	nop
    ca70:	f3 0f 1e fa          	endbr64 
    ca74:	68 a4 01 00 00       	push   0x1a4
    ca79:	f2 e9 a1 e5 ff ff    	bnd jmp b020 <_init+0x20>
    ca7f:	90                   	nop
    ca80:	f3 0f 1e fa          	endbr64 
    ca84:	68 a5 01 00 00       	push   0x1a5
    ca89:	f2 e9 91 e5 ff ff    	bnd jmp b020 <_init+0x20>
    ca8f:	90                   	nop
    ca90:	f3 0f 1e fa          	endbr64 
    ca94:	68 a6 01 00 00       	push   0x1a6
    ca99:	f2 e9 81 e5 ff ff    	bnd jmp b020 <_init+0x20>
    ca9f:	90                   	nop
    caa0:	f3 0f 1e fa          	endbr64 
    caa4:	68 a7 01 00 00       	push   0x1a7
    caa9:	f2 e9 71 e5 ff ff    	bnd jmp b020 <_init+0x20>
    caaf:	90                   	nop
    cab0:	f3 0f 1e fa          	endbr64 
    cab4:	68 a8 01 00 00       	push   0x1a8
    cab9:	f2 e9 61 e5 ff ff    	bnd jmp b020 <_init+0x20>
    cabf:	90                   	nop
    cac0:	f3 0f 1e fa          	endbr64 
    cac4:	68 a9 01 00 00       	push   0x1a9
    cac9:	f2 e9 51 e5 ff ff    	bnd jmp b020 <_init+0x20>
    cacf:	90                   	nop
    cad0:	f3 0f 1e fa          	endbr64 
    cad4:	68 aa 01 00 00       	push   0x1aa
    cad9:	f2 e9 41 e5 ff ff    	bnd jmp b020 <_init+0x20>
    cadf:	90                   	nop
    cae0:	f3 0f 1e fa          	endbr64 
    cae4:	68 ab 01 00 00       	push   0x1ab
    cae9:	f2 e9 31 e5 ff ff    	bnd jmp b020 <_init+0x20>
    caef:	90                   	nop
    caf0:	f3 0f 1e fa          	endbr64 
    caf4:	68 ac 01 00 00       	push   0x1ac
    caf9:	f2 e9 21 e5 ff ff    	bnd jmp b020 <_init+0x20>
    caff:	90                   	nop
    cb00:	f3 0f 1e fa          	endbr64 
    cb04:	68 ad 01 00 00       	push   0x1ad
    cb09:	f2 e9 11 e5 ff ff    	bnd jmp b020 <_init+0x20>
    cb0f:	90                   	nop
    cb10:	f3 0f 1e fa          	endbr64 
    cb14:	68 ae 01 00 00       	push   0x1ae
    cb19:	f2 e9 01 e5 ff ff    	bnd jmp b020 <_init+0x20>
    cb1f:	90                   	nop
    cb20:	f3 0f 1e fa          	endbr64 
    cb24:	68 af 01 00 00       	push   0x1af
    cb29:	f2 e9 f1 e4 ff ff    	bnd jmp b020 <_init+0x20>
    cb2f:	90                   	nop
    cb30:	f3 0f 1e fa          	endbr64 
    cb34:	68 b0 01 00 00       	push   0x1b0
    cb39:	f2 e9 e1 e4 ff ff    	bnd jmp b020 <_init+0x20>
    cb3f:	90                   	nop
    cb40:	f3 0f 1e fa          	endbr64 
    cb44:	68 b1 01 00 00       	push   0x1b1
    cb49:	f2 e9 d1 e4 ff ff    	bnd jmp b020 <_init+0x20>
    cb4f:	90                   	nop
    cb50:	f3 0f 1e fa          	endbr64 
    cb54:	68 b2 01 00 00       	push   0x1b2
    cb59:	f2 e9 c1 e4 ff ff    	bnd jmp b020 <_init+0x20>
    cb5f:	90                   	nop
    cb60:	f3 0f 1e fa          	endbr64 
    cb64:	68 b3 01 00 00       	push   0x1b3
    cb69:	f2 e9 b1 e4 ff ff    	bnd jmp b020 <_init+0x20>
    cb6f:	90                   	nop
    cb70:	f3 0f 1e fa          	endbr64 
    cb74:	68 b4 01 00 00       	push   0x1b4
    cb79:	f2 e9 a1 e4 ff ff    	bnd jmp b020 <_init+0x20>
    cb7f:	90                   	nop
    cb80:	f3 0f 1e fa          	endbr64 
    cb84:	68 b5 01 00 00       	push   0x1b5
    cb89:	f2 e9 91 e4 ff ff    	bnd jmp b020 <_init+0x20>
    cb8f:	90                   	nop
    cb90:	f3 0f 1e fa          	endbr64 
    cb94:	68 b6 01 00 00       	push   0x1b6
    cb99:	f2 e9 81 e4 ff ff    	bnd jmp b020 <_init+0x20>
    cb9f:	90                   	nop
    cba0:	f3 0f 1e fa          	endbr64 
    cba4:	68 b7 01 00 00       	push   0x1b7
    cba9:	f2 e9 71 e4 ff ff    	bnd jmp b020 <_init+0x20>
    cbaf:	90                   	nop
    cbb0:	f3 0f 1e fa          	endbr64 
    cbb4:	68 b8 01 00 00       	push   0x1b8
    cbb9:	f2 e9 61 e4 ff ff    	bnd jmp b020 <_init+0x20>
    cbbf:	90                   	nop
    cbc0:	f3 0f 1e fa          	endbr64 
    cbc4:	68 b9 01 00 00       	push   0x1b9
    cbc9:	f2 e9 51 e4 ff ff    	bnd jmp b020 <_init+0x20>
    cbcf:	90                   	nop
    cbd0:	f3 0f 1e fa          	endbr64 
    cbd4:	68 ba 01 00 00       	push   0x1ba
    cbd9:	f2 e9 41 e4 ff ff    	bnd jmp b020 <_init+0x20>
    cbdf:	90                   	nop
    cbe0:	f3 0f 1e fa          	endbr64 
    cbe4:	68 bb 01 00 00       	push   0x1bb
    cbe9:	f2 e9 31 e4 ff ff    	bnd jmp b020 <_init+0x20>
    cbef:	90                   	nop
    cbf0:	f3 0f 1e fa          	endbr64 
    cbf4:	68 bc 01 00 00       	push   0x1bc
    cbf9:	f2 e9 21 e4 ff ff    	bnd jmp b020 <_init+0x20>
    cbff:	90                   	nop
    cc00:	f3 0f 1e fa          	endbr64 
    cc04:	68 bd 01 00 00       	push   0x1bd
    cc09:	f2 e9 11 e4 ff ff    	bnd jmp b020 <_init+0x20>
    cc0f:	90                   	nop
    cc10:	f3 0f 1e fa          	endbr64 
    cc14:	68 be 01 00 00       	push   0x1be
    cc19:	f2 e9 01 e4 ff ff    	bnd jmp b020 <_init+0x20>
    cc1f:	90                   	nop
    cc20:	f3 0f 1e fa          	endbr64 
    cc24:	68 bf 01 00 00       	push   0x1bf
    cc29:	f2 e9 f1 e3 ff ff    	bnd jmp b020 <_init+0x20>
    cc2f:	90                   	nop
    cc30:	f3 0f 1e fa          	endbr64 
    cc34:	68 c0 01 00 00       	push   0x1c0
    cc39:	f2 e9 e1 e3 ff ff    	bnd jmp b020 <_init+0x20>
    cc3f:	90                   	nop
    cc40:	f3 0f 1e fa          	endbr64 
    cc44:	68 c1 01 00 00       	push   0x1c1
    cc49:	f2 e9 d1 e3 ff ff    	bnd jmp b020 <_init+0x20>
    cc4f:	90                   	nop
    cc50:	f3 0f 1e fa          	endbr64 
    cc54:	68 c2 01 00 00       	push   0x1c2
    cc59:	f2 e9 c1 e3 ff ff    	bnd jmp b020 <_init+0x20>
    cc5f:	90                   	nop
    cc60:	f3 0f 1e fa          	endbr64 
    cc64:	68 c3 01 00 00       	push   0x1c3
    cc69:	f2 e9 b1 e3 ff ff    	bnd jmp b020 <_init+0x20>
    cc6f:	90                   	nop
    cc70:	f3 0f 1e fa          	endbr64 
    cc74:	68 c4 01 00 00       	push   0x1c4
    cc79:	f2 e9 a1 e3 ff ff    	bnd jmp b020 <_init+0x20>
    cc7f:	90                   	nop
    cc80:	f3 0f 1e fa          	endbr64 
    cc84:	68 c5 01 00 00       	push   0x1c5
    cc89:	f2 e9 91 e3 ff ff    	bnd jmp b020 <_init+0x20>
    cc8f:	90                   	nop
    cc90:	f3 0f 1e fa          	endbr64 
    cc94:	68 c6 01 00 00       	push   0x1c6
    cc99:	f2 e9 81 e3 ff ff    	bnd jmp b020 <_init+0x20>
    cc9f:	90                   	nop
    cca0:	f3 0f 1e fa          	endbr64 
    cca4:	68 c7 01 00 00       	push   0x1c7
    cca9:	f2 e9 71 e3 ff ff    	bnd jmp b020 <_init+0x20>
    ccaf:	90                   	nop
    ccb0:	f3 0f 1e fa          	endbr64 
    ccb4:	68 c8 01 00 00       	push   0x1c8
    ccb9:	f2 e9 61 e3 ff ff    	bnd jmp b020 <_init+0x20>
    ccbf:	90                   	nop
    ccc0:	f3 0f 1e fa          	endbr64 
    ccc4:	68 c9 01 00 00       	push   0x1c9
    ccc9:	f2 e9 51 e3 ff ff    	bnd jmp b020 <_init+0x20>
    cccf:	90                   	nop
    ccd0:	f3 0f 1e fa          	endbr64 
    ccd4:	68 ca 01 00 00       	push   0x1ca
    ccd9:	f2 e9 41 e3 ff ff    	bnd jmp b020 <_init+0x20>
    ccdf:	90                   	nop
    cce0:	f3 0f 1e fa          	endbr64 
    cce4:	68 cb 01 00 00       	push   0x1cb
    cce9:	f2 e9 31 e3 ff ff    	bnd jmp b020 <_init+0x20>
    ccef:	90                   	nop
    ccf0:	f3 0f 1e fa          	endbr64 
    ccf4:	68 cc 01 00 00       	push   0x1cc
    ccf9:	f2 e9 21 e3 ff ff    	bnd jmp b020 <_init+0x20>
    ccff:	90                   	nop
    cd00:	f3 0f 1e fa          	endbr64 
    cd04:	68 cd 01 00 00       	push   0x1cd
    cd09:	f2 e9 11 e3 ff ff    	bnd jmp b020 <_init+0x20>
    cd0f:	90                   	nop
    cd10:	f3 0f 1e fa          	endbr64 
    cd14:	68 ce 01 00 00       	push   0x1ce
    cd19:	f2 e9 01 e3 ff ff    	bnd jmp b020 <_init+0x20>
    cd1f:	90                   	nop
    cd20:	f3 0f 1e fa          	endbr64 
    cd24:	68 cf 01 00 00       	push   0x1cf
    cd29:	f2 e9 f1 e2 ff ff    	bnd jmp b020 <_init+0x20>
    cd2f:	90                   	nop
    cd30:	f3 0f 1e fa          	endbr64 
    cd34:	68 d0 01 00 00       	push   0x1d0
    cd39:	f2 e9 e1 e2 ff ff    	bnd jmp b020 <_init+0x20>
    cd3f:	90                   	nop
    cd40:	f3 0f 1e fa          	endbr64 
    cd44:	68 d1 01 00 00       	push   0x1d1
    cd49:	f2 e9 d1 e2 ff ff    	bnd jmp b020 <_init+0x20>
    cd4f:	90                   	nop
    cd50:	f3 0f 1e fa          	endbr64 
    cd54:	68 d2 01 00 00       	push   0x1d2
    cd59:	f2 e9 c1 e2 ff ff    	bnd jmp b020 <_init+0x20>
    cd5f:	90                   	nop
    cd60:	f3 0f 1e fa          	endbr64 
    cd64:	68 d3 01 00 00       	push   0x1d3
    cd69:	f2 e9 b1 e2 ff ff    	bnd jmp b020 <_init+0x20>
    cd6f:	90                   	nop
    cd70:	f3 0f 1e fa          	endbr64 
    cd74:	68 d4 01 00 00       	push   0x1d4
    cd79:	f2 e9 a1 e2 ff ff    	bnd jmp b020 <_init+0x20>
    cd7f:	90                   	nop
    cd80:	f3 0f 1e fa          	endbr64 
    cd84:	68 d5 01 00 00       	push   0x1d5
    cd89:	f2 e9 91 e2 ff ff    	bnd jmp b020 <_init+0x20>
    cd8f:	90                   	nop
    cd90:	f3 0f 1e fa          	endbr64 
    cd94:	68 d6 01 00 00       	push   0x1d6
    cd99:	f2 e9 81 e2 ff ff    	bnd jmp b020 <_init+0x20>
    cd9f:	90                   	nop
    cda0:	f3 0f 1e fa          	endbr64 
    cda4:	68 d7 01 00 00       	push   0x1d7
    cda9:	f2 e9 71 e2 ff ff    	bnd jmp b020 <_init+0x20>
    cdaf:	90                   	nop
    cdb0:	f3 0f 1e fa          	endbr64 
    cdb4:	68 d8 01 00 00       	push   0x1d8
    cdb9:	f2 e9 61 e2 ff ff    	bnd jmp b020 <_init+0x20>
    cdbf:	90                   	nop
    cdc0:	f3 0f 1e fa          	endbr64 
    cdc4:	68 d9 01 00 00       	push   0x1d9
    cdc9:	f2 e9 51 e2 ff ff    	bnd jmp b020 <_init+0x20>
    cdcf:	90                   	nop
    cdd0:	f3 0f 1e fa          	endbr64 
    cdd4:	68 da 01 00 00       	push   0x1da
    cdd9:	f2 e9 41 e2 ff ff    	bnd jmp b020 <_init+0x20>
    cddf:	90                   	nop
    cde0:	f3 0f 1e fa          	endbr64 
    cde4:	68 db 01 00 00       	push   0x1db
    cde9:	f2 e9 31 e2 ff ff    	bnd jmp b020 <_init+0x20>
    cdef:	90                   	nop
    cdf0:	f3 0f 1e fa          	endbr64 
    cdf4:	68 dc 01 00 00       	push   0x1dc
    cdf9:	f2 e9 21 e2 ff ff    	bnd jmp b020 <_init+0x20>
    cdff:	90                   	nop
    ce00:	f3 0f 1e fa          	endbr64 
    ce04:	68 dd 01 00 00       	push   0x1dd
    ce09:	f2 e9 11 e2 ff ff    	bnd jmp b020 <_init+0x20>
    ce0f:	90                   	nop
    ce10:	f3 0f 1e fa          	endbr64 
    ce14:	68 de 01 00 00       	push   0x1de
    ce19:	f2 e9 01 e2 ff ff    	bnd jmp b020 <_init+0x20>
    ce1f:	90                   	nop
    ce20:	f3 0f 1e fa          	endbr64 
    ce24:	68 df 01 00 00       	push   0x1df
    ce29:	f2 e9 f1 e1 ff ff    	bnd jmp b020 <_init+0x20>
    ce2f:	90                   	nop
    ce30:	f3 0f 1e fa          	endbr64 
    ce34:	68 e0 01 00 00       	push   0x1e0
    ce39:	f2 e9 e1 e1 ff ff    	bnd jmp b020 <_init+0x20>
    ce3f:	90                   	nop
    ce40:	f3 0f 1e fa          	endbr64 
    ce44:	68 e1 01 00 00       	push   0x1e1
    ce49:	f2 e9 d1 e1 ff ff    	bnd jmp b020 <_init+0x20>
    ce4f:	90                   	nop
    ce50:	f3 0f 1e fa          	endbr64 
    ce54:	68 e2 01 00 00       	push   0x1e2
    ce59:	f2 e9 c1 e1 ff ff    	bnd jmp b020 <_init+0x20>
    ce5f:	90                   	nop
    ce60:	f3 0f 1e fa          	endbr64 
    ce64:	68 e3 01 00 00       	push   0x1e3
    ce69:	f2 e9 b1 e1 ff ff    	bnd jmp b020 <_init+0x20>
    ce6f:	90                   	nop
    ce70:	f3 0f 1e fa          	endbr64 
    ce74:	68 e4 01 00 00       	push   0x1e4
    ce79:	f2 e9 a1 e1 ff ff    	bnd jmp b020 <_init+0x20>
    ce7f:	90                   	nop
    ce80:	f3 0f 1e fa          	endbr64 
    ce84:	68 e5 01 00 00       	push   0x1e5
    ce89:	f2 e9 91 e1 ff ff    	bnd jmp b020 <_init+0x20>
    ce8f:	90                   	nop
    ce90:	f3 0f 1e fa          	endbr64 
    ce94:	68 e6 01 00 00       	push   0x1e6
    ce99:	f2 e9 81 e1 ff ff    	bnd jmp b020 <_init+0x20>
    ce9f:	90                   	nop
    cea0:	f3 0f 1e fa          	endbr64 
    cea4:	68 e7 01 00 00       	push   0x1e7
    cea9:	f2 e9 71 e1 ff ff    	bnd jmp b020 <_init+0x20>
    ceaf:	90                   	nop
    ceb0:	f3 0f 1e fa          	endbr64 
    ceb4:	68 e8 01 00 00       	push   0x1e8
    ceb9:	f2 e9 61 e1 ff ff    	bnd jmp b020 <_init+0x20>
    cebf:	90                   	nop
    cec0:	f3 0f 1e fa          	endbr64 
    cec4:	68 e9 01 00 00       	push   0x1e9
    cec9:	f2 e9 51 e1 ff ff    	bnd jmp b020 <_init+0x20>
    cecf:	90                   	nop
    ced0:	f3 0f 1e fa          	endbr64 
    ced4:	68 ea 01 00 00       	push   0x1ea
    ced9:	f2 e9 41 e1 ff ff    	bnd jmp b020 <_init+0x20>
    cedf:	90                   	nop
    cee0:	f3 0f 1e fa          	endbr64 
    cee4:	68 eb 01 00 00       	push   0x1eb
    cee9:	f2 e9 31 e1 ff ff    	bnd jmp b020 <_init+0x20>
    ceef:	90                   	nop
    cef0:	f3 0f 1e fa          	endbr64 
    cef4:	68 ec 01 00 00       	push   0x1ec
    cef9:	f2 e9 21 e1 ff ff    	bnd jmp b020 <_init+0x20>
    ceff:	90                   	nop
    cf00:	f3 0f 1e fa          	endbr64 
    cf04:	68 ed 01 00 00       	push   0x1ed
    cf09:	f2 e9 11 e1 ff ff    	bnd jmp b020 <_init+0x20>
    cf0f:	90                   	nop
    cf10:	f3 0f 1e fa          	endbr64 
    cf14:	68 ee 01 00 00       	push   0x1ee
    cf19:	f2 e9 01 e1 ff ff    	bnd jmp b020 <_init+0x20>
    cf1f:	90                   	nop
    cf20:	f3 0f 1e fa          	endbr64 
    cf24:	68 ef 01 00 00       	push   0x1ef
    cf29:	f2 e9 f1 e0 ff ff    	bnd jmp b020 <_init+0x20>
    cf2f:	90                   	nop
    cf30:	f3 0f 1e fa          	endbr64 
    cf34:	68 f0 01 00 00       	push   0x1f0
    cf39:	f2 e9 e1 e0 ff ff    	bnd jmp b020 <_init+0x20>
    cf3f:	90                   	nop
    cf40:	f3 0f 1e fa          	endbr64 
    cf44:	68 f1 01 00 00       	push   0x1f1
    cf49:	f2 e9 d1 e0 ff ff    	bnd jmp b020 <_init+0x20>
    cf4f:	90                   	nop
    cf50:	f3 0f 1e fa          	endbr64 
    cf54:	68 f2 01 00 00       	push   0x1f2
    cf59:	f2 e9 c1 e0 ff ff    	bnd jmp b020 <_init+0x20>
    cf5f:	90                   	nop
    cf60:	f3 0f 1e fa          	endbr64 
    cf64:	68 f3 01 00 00       	push   0x1f3
    cf69:	f2 e9 b1 e0 ff ff    	bnd jmp b020 <_init+0x20>
    cf6f:	90                   	nop
    cf70:	f3 0f 1e fa          	endbr64 
    cf74:	68 f4 01 00 00       	push   0x1f4
    cf79:	f2 e9 a1 e0 ff ff    	bnd jmp b020 <_init+0x20>
    cf7f:	90                   	nop
    cf80:	f3 0f 1e fa          	endbr64 
    cf84:	68 f5 01 00 00       	push   0x1f5
    cf89:	f2 e9 91 e0 ff ff    	bnd jmp b020 <_init+0x20>
    cf8f:	90                   	nop
    cf90:	f3 0f 1e fa          	endbr64 
    cf94:	68 f6 01 00 00       	push   0x1f6
    cf99:	f2 e9 81 e0 ff ff    	bnd jmp b020 <_init+0x20>
    cf9f:	90                   	nop
    cfa0:	f3 0f 1e fa          	endbr64 
    cfa4:	68 f7 01 00 00       	push   0x1f7
    cfa9:	f2 e9 71 e0 ff ff    	bnd jmp b020 <_init+0x20>
    cfaf:	90                   	nop
    cfb0:	f3 0f 1e fa          	endbr64 
    cfb4:	68 f8 01 00 00       	push   0x1f8
    cfb9:	f2 e9 61 e0 ff ff    	bnd jmp b020 <_init+0x20>
    cfbf:	90                   	nop
    cfc0:	f3 0f 1e fa          	endbr64 
    cfc4:	68 f9 01 00 00       	push   0x1f9
    cfc9:	f2 e9 51 e0 ff ff    	bnd jmp b020 <_init+0x20>
    cfcf:	90                   	nop
    cfd0:	f3 0f 1e fa          	endbr64 
    cfd4:	68 fa 01 00 00       	push   0x1fa
    cfd9:	f2 e9 41 e0 ff ff    	bnd jmp b020 <_init+0x20>
    cfdf:	90                   	nop
    cfe0:	f3 0f 1e fa          	endbr64 
    cfe4:	68 fb 01 00 00       	push   0x1fb
    cfe9:	f2 e9 31 e0 ff ff    	bnd jmp b020 <_init+0x20>
    cfef:	90                   	nop
    cff0:	f3 0f 1e fa          	endbr64 
    cff4:	68 fc 01 00 00       	push   0x1fc
    cff9:	f2 e9 21 e0 ff ff    	bnd jmp b020 <_init+0x20>
    cfff:	90                   	nop
    d000:	f3 0f 1e fa          	endbr64 
    d004:	68 fd 01 00 00       	push   0x1fd
    d009:	f2 e9 11 e0 ff ff    	bnd jmp b020 <_init+0x20>
    d00f:	90                   	nop
    d010:	f3 0f 1e fa          	endbr64 
    d014:	68 fe 01 00 00       	push   0x1fe
    d019:	f2 e9 01 e0 ff ff    	bnd jmp b020 <_init+0x20>
    d01f:	90                   	nop
    d020:	f3 0f 1e fa          	endbr64 
    d024:	68 ff 01 00 00       	push   0x1ff
    d029:	f2 e9 f1 df ff ff    	bnd jmp b020 <_init+0x20>
    d02f:	90                   	nop
    d030:	f3 0f 1e fa          	endbr64 
    d034:	68 00 02 00 00       	push   0x200
    d039:	f2 e9 e1 df ff ff    	bnd jmp b020 <_init+0x20>
    d03f:	90                   	nop
    d040:	f3 0f 1e fa          	endbr64 
    d044:	68 01 02 00 00       	push   0x201
    d049:	f2 e9 d1 df ff ff    	bnd jmp b020 <_init+0x20>
    d04f:	90                   	nop
    d050:	f3 0f 1e fa          	endbr64 
    d054:	68 02 02 00 00       	push   0x202
    d059:	f2 e9 c1 df ff ff    	bnd jmp b020 <_init+0x20>
    d05f:	90                   	nop
    d060:	f3 0f 1e fa          	endbr64 
    d064:	68 03 02 00 00       	push   0x203
    d069:	f2 e9 b1 df ff ff    	bnd jmp b020 <_init+0x20>
    d06f:	90                   	nop
    d070:	f3 0f 1e fa          	endbr64 
    d074:	68 04 02 00 00       	push   0x204
    d079:	f2 e9 a1 df ff ff    	bnd jmp b020 <_init+0x20>
    d07f:	90                   	nop
    d080:	f3 0f 1e fa          	endbr64 
    d084:	68 05 02 00 00       	push   0x205
    d089:	f2 e9 91 df ff ff    	bnd jmp b020 <_init+0x20>
    d08f:	90                   	nop
    d090:	f3 0f 1e fa          	endbr64 
    d094:	68 06 02 00 00       	push   0x206
    d099:	f2 e9 81 df ff ff    	bnd jmp b020 <_init+0x20>
    d09f:	90                   	nop
    d0a0:	f3 0f 1e fa          	endbr64 
    d0a4:	68 07 02 00 00       	push   0x207
    d0a9:	f2 e9 71 df ff ff    	bnd jmp b020 <_init+0x20>
    d0af:	90                   	nop
    d0b0:	f3 0f 1e fa          	endbr64 
    d0b4:	68 08 02 00 00       	push   0x208
    d0b9:	f2 e9 61 df ff ff    	bnd jmp b020 <_init+0x20>
    d0bf:	90                   	nop
    d0c0:	f3 0f 1e fa          	endbr64 
    d0c4:	68 09 02 00 00       	push   0x209
    d0c9:	f2 e9 51 df ff ff    	bnd jmp b020 <_init+0x20>
    d0cf:	90                   	nop
    d0d0:	f3 0f 1e fa          	endbr64 
    d0d4:	68 0a 02 00 00       	push   0x20a
    d0d9:	f2 e9 41 df ff ff    	bnd jmp b020 <_init+0x20>
    d0df:	90                   	nop
    d0e0:	f3 0f 1e fa          	endbr64 
    d0e4:	68 0b 02 00 00       	push   0x20b
    d0e9:	f2 e9 31 df ff ff    	bnd jmp b020 <_init+0x20>
    d0ef:	90                   	nop
    d0f0:	f3 0f 1e fa          	endbr64 
    d0f4:	68 0c 02 00 00       	push   0x20c
    d0f9:	f2 e9 21 df ff ff    	bnd jmp b020 <_init+0x20>
    d0ff:	90                   	nop
    d100:	f3 0f 1e fa          	endbr64 
    d104:	68 0d 02 00 00       	push   0x20d
    d109:	f2 e9 11 df ff ff    	bnd jmp b020 <_init+0x20>
    d10f:	90                   	nop
    d110:	f3 0f 1e fa          	endbr64 
    d114:	68 0e 02 00 00       	push   0x20e
    d119:	f2 e9 01 df ff ff    	bnd jmp b020 <_init+0x20>
    d11f:	90                   	nop
    d120:	f3 0f 1e fa          	endbr64 
    d124:	68 0f 02 00 00       	push   0x20f
    d129:	f2 e9 f1 de ff ff    	bnd jmp b020 <_init+0x20>
    d12f:	90                   	nop
    d130:	f3 0f 1e fa          	endbr64 
    d134:	68 10 02 00 00       	push   0x210
    d139:	f2 e9 e1 de ff ff    	bnd jmp b020 <_init+0x20>
    d13f:	90                   	nop
    d140:	f3 0f 1e fa          	endbr64 
    d144:	68 11 02 00 00       	push   0x211
    d149:	f2 e9 d1 de ff ff    	bnd jmp b020 <_init+0x20>
    d14f:	90                   	nop
    d150:	f3 0f 1e fa          	endbr64 
    d154:	68 12 02 00 00       	push   0x212
    d159:	f2 e9 c1 de ff ff    	bnd jmp b020 <_init+0x20>
    d15f:	90                   	nop
    d160:	f3 0f 1e fa          	endbr64 
    d164:	68 13 02 00 00       	push   0x213
    d169:	f2 e9 b1 de ff ff    	bnd jmp b020 <_init+0x20>
    d16f:	90                   	nop
    d170:	f3 0f 1e fa          	endbr64 
    d174:	68 14 02 00 00       	push   0x214
    d179:	f2 e9 a1 de ff ff    	bnd jmp b020 <_init+0x20>
    d17f:	90                   	nop
    d180:	f3 0f 1e fa          	endbr64 
    d184:	68 15 02 00 00       	push   0x215
    d189:	f2 e9 91 de ff ff    	bnd jmp b020 <_init+0x20>
    d18f:	90                   	nop
    d190:	f3 0f 1e fa          	endbr64 
    d194:	68 16 02 00 00       	push   0x216
    d199:	f2 e9 81 de ff ff    	bnd jmp b020 <_init+0x20>
    d19f:	90                   	nop
    d1a0:	f3 0f 1e fa          	endbr64 
    d1a4:	68 17 02 00 00       	push   0x217
    d1a9:	f2 e9 71 de ff ff    	bnd jmp b020 <_init+0x20>
    d1af:	90                   	nop
    d1b0:	f3 0f 1e fa          	endbr64 
    d1b4:	68 18 02 00 00       	push   0x218
    d1b9:	f2 e9 61 de ff ff    	bnd jmp b020 <_init+0x20>
    d1bf:	90                   	nop
    d1c0:	f3 0f 1e fa          	endbr64 
    d1c4:	68 19 02 00 00       	push   0x219
    d1c9:	f2 e9 51 de ff ff    	bnd jmp b020 <_init+0x20>
    d1cf:	90                   	nop
    d1d0:	f3 0f 1e fa          	endbr64 
    d1d4:	68 1a 02 00 00       	push   0x21a
    d1d9:	f2 e9 41 de ff ff    	bnd jmp b020 <_init+0x20>
    d1df:	90                   	nop
    d1e0:	f3 0f 1e fa          	endbr64 
    d1e4:	68 1b 02 00 00       	push   0x21b
    d1e9:	f2 e9 31 de ff ff    	bnd jmp b020 <_init+0x20>
    d1ef:	90                   	nop
    d1f0:	f3 0f 1e fa          	endbr64 
    d1f4:	68 1c 02 00 00       	push   0x21c
    d1f9:	f2 e9 21 de ff ff    	bnd jmp b020 <_init+0x20>
    d1ff:	90                   	nop
    d200:	f3 0f 1e fa          	endbr64 
    d204:	68 1d 02 00 00       	push   0x21d
    d209:	f2 e9 11 de ff ff    	bnd jmp b020 <_init+0x20>
    d20f:	90                   	nop
    d210:	f3 0f 1e fa          	endbr64 
    d214:	68 1e 02 00 00       	push   0x21e
    d219:	f2 e9 01 de ff ff    	bnd jmp b020 <_init+0x20>
    d21f:	90                   	nop
    d220:	f3 0f 1e fa          	endbr64 
    d224:	68 1f 02 00 00       	push   0x21f
    d229:	f2 e9 f1 dd ff ff    	bnd jmp b020 <_init+0x20>
    d22f:	90                   	nop
    d230:	f3 0f 1e fa          	endbr64 
    d234:	68 20 02 00 00       	push   0x220
    d239:	f2 e9 e1 dd ff ff    	bnd jmp b020 <_init+0x20>
    d23f:	90                   	nop
    d240:	f3 0f 1e fa          	endbr64 
    d244:	68 21 02 00 00       	push   0x221
    d249:	f2 e9 d1 dd ff ff    	bnd jmp b020 <_init+0x20>
    d24f:	90                   	nop
    d250:	f3 0f 1e fa          	endbr64 
    d254:	68 22 02 00 00       	push   0x222
    d259:	f2 e9 c1 dd ff ff    	bnd jmp b020 <_init+0x20>
    d25f:	90                   	nop
    d260:	f3 0f 1e fa          	endbr64 
    d264:	68 23 02 00 00       	push   0x223
    d269:	f2 e9 b1 dd ff ff    	bnd jmp b020 <_init+0x20>
    d26f:	90                   	nop
    d270:	f3 0f 1e fa          	endbr64 
    d274:	68 24 02 00 00       	push   0x224
    d279:	f2 e9 a1 dd ff ff    	bnd jmp b020 <_init+0x20>
    d27f:	90                   	nop
    d280:	f3 0f 1e fa          	endbr64 
    d284:	68 25 02 00 00       	push   0x225
    d289:	f2 e9 91 dd ff ff    	bnd jmp b020 <_init+0x20>
    d28f:	90                   	nop
    d290:	f3 0f 1e fa          	endbr64 
    d294:	68 26 02 00 00       	push   0x226
    d299:	f2 e9 81 dd ff ff    	bnd jmp b020 <_init+0x20>
    d29f:	90                   	nop
    d2a0:	f3 0f 1e fa          	endbr64 
    d2a4:	68 27 02 00 00       	push   0x227
    d2a9:	f2 e9 71 dd ff ff    	bnd jmp b020 <_init+0x20>
    d2af:	90                   	nop
    d2b0:	f3 0f 1e fa          	endbr64 
    d2b4:	68 28 02 00 00       	push   0x228
    d2b9:	f2 e9 61 dd ff ff    	bnd jmp b020 <_init+0x20>
    d2bf:	90                   	nop
    d2c0:	f3 0f 1e fa          	endbr64 
    d2c4:	68 29 02 00 00       	push   0x229
    d2c9:	f2 e9 51 dd ff ff    	bnd jmp b020 <_init+0x20>
    d2cf:	90                   	nop
    d2d0:	f3 0f 1e fa          	endbr64 
    d2d4:	68 2a 02 00 00       	push   0x22a
    d2d9:	f2 e9 41 dd ff ff    	bnd jmp b020 <_init+0x20>
    d2df:	90                   	nop
    d2e0:	f3 0f 1e fa          	endbr64 
    d2e4:	68 2b 02 00 00       	push   0x22b
    d2e9:	f2 e9 31 dd ff ff    	bnd jmp b020 <_init+0x20>
    d2ef:	90                   	nop
    d2f0:	f3 0f 1e fa          	endbr64 
    d2f4:	68 2c 02 00 00       	push   0x22c
    d2f9:	f2 e9 21 dd ff ff    	bnd jmp b020 <_init+0x20>
    d2ff:	90                   	nop
    d300:	f3 0f 1e fa          	endbr64 
    d304:	68 2d 02 00 00       	push   0x22d
    d309:	f2 e9 11 dd ff ff    	bnd jmp b020 <_init+0x20>
    d30f:	90                   	nop
    d310:	f3 0f 1e fa          	endbr64 
    d314:	68 2e 02 00 00       	push   0x22e
    d319:	f2 e9 01 dd ff ff    	bnd jmp b020 <_init+0x20>
    d31f:	90                   	nop
    d320:	f3 0f 1e fa          	endbr64 
    d324:	68 2f 02 00 00       	push   0x22f
    d329:	f2 e9 f1 dc ff ff    	bnd jmp b020 <_init+0x20>
    d32f:	90                   	nop
    d330:	f3 0f 1e fa          	endbr64 
    d334:	68 30 02 00 00       	push   0x230
    d339:	f2 e9 e1 dc ff ff    	bnd jmp b020 <_init+0x20>
    d33f:	90                   	nop
    d340:	f3 0f 1e fa          	endbr64 
    d344:	68 31 02 00 00       	push   0x231
    d349:	f2 e9 d1 dc ff ff    	bnd jmp b020 <_init+0x20>
    d34f:	90                   	nop
    d350:	f3 0f 1e fa          	endbr64 
    d354:	68 32 02 00 00       	push   0x232
    d359:	f2 e9 c1 dc ff ff    	bnd jmp b020 <_init+0x20>
    d35f:	90                   	nop
    d360:	f3 0f 1e fa          	endbr64 
    d364:	68 33 02 00 00       	push   0x233
    d369:	f2 e9 b1 dc ff ff    	bnd jmp b020 <_init+0x20>
    d36f:	90                   	nop
    d370:	f3 0f 1e fa          	endbr64 
    d374:	68 34 02 00 00       	push   0x234
    d379:	f2 e9 a1 dc ff ff    	bnd jmp b020 <_init+0x20>
    d37f:	90                   	nop
    d380:	f3 0f 1e fa          	endbr64 
    d384:	68 35 02 00 00       	push   0x235
    d389:	f2 e9 91 dc ff ff    	bnd jmp b020 <_init+0x20>
    d38f:	90                   	nop
    d390:	f3 0f 1e fa          	endbr64 
    d394:	68 36 02 00 00       	push   0x236
    d399:	f2 e9 81 dc ff ff    	bnd jmp b020 <_init+0x20>
    d39f:	90                   	nop
    d3a0:	f3 0f 1e fa          	endbr64 
    d3a4:	68 37 02 00 00       	push   0x237
    d3a9:	f2 e9 71 dc ff ff    	bnd jmp b020 <_init+0x20>
    d3af:	90                   	nop
    d3b0:	f3 0f 1e fa          	endbr64 
    d3b4:	68 38 02 00 00       	push   0x238
    d3b9:	f2 e9 61 dc ff ff    	bnd jmp b020 <_init+0x20>
    d3bf:	90                   	nop
    d3c0:	f3 0f 1e fa          	endbr64 
    d3c4:	68 39 02 00 00       	push   0x239
    d3c9:	f2 e9 51 dc ff ff    	bnd jmp b020 <_init+0x20>
    d3cf:	90                   	nop
    d3d0:	f3 0f 1e fa          	endbr64 
    d3d4:	68 3a 02 00 00       	push   0x23a
    d3d9:	f2 e9 41 dc ff ff    	bnd jmp b020 <_init+0x20>
    d3df:	90                   	nop
    d3e0:	f3 0f 1e fa          	endbr64 
    d3e4:	68 3b 02 00 00       	push   0x23b
    d3e9:	f2 e9 31 dc ff ff    	bnd jmp b020 <_init+0x20>
    d3ef:	90                   	nop
    d3f0:	f3 0f 1e fa          	endbr64 
    d3f4:	68 3c 02 00 00       	push   0x23c
    d3f9:	f2 e9 21 dc ff ff    	bnd jmp b020 <_init+0x20>
    d3ff:	90                   	nop
    d400:	f3 0f 1e fa          	endbr64 
    d404:	68 3d 02 00 00       	push   0x23d
    d409:	f2 e9 11 dc ff ff    	bnd jmp b020 <_init+0x20>
    d40f:	90                   	nop
    d410:	f3 0f 1e fa          	endbr64 
    d414:	68 3e 02 00 00       	push   0x23e
    d419:	f2 e9 01 dc ff ff    	bnd jmp b020 <_init+0x20>
    d41f:	90                   	nop
    d420:	f3 0f 1e fa          	endbr64 
    d424:	68 3f 02 00 00       	push   0x23f
    d429:	f2 e9 f1 db ff ff    	bnd jmp b020 <_init+0x20>
    d42f:	90                   	nop
    d430:	f3 0f 1e fa          	endbr64 
    d434:	68 40 02 00 00       	push   0x240
    d439:	f2 e9 e1 db ff ff    	bnd jmp b020 <_init+0x20>
    d43f:	90                   	nop
    d440:	f3 0f 1e fa          	endbr64 
    d444:	68 41 02 00 00       	push   0x241
    d449:	f2 e9 d1 db ff ff    	bnd jmp b020 <_init+0x20>
    d44f:	90                   	nop
    d450:	f3 0f 1e fa          	endbr64 
    d454:	68 42 02 00 00       	push   0x242
    d459:	f2 e9 c1 db ff ff    	bnd jmp b020 <_init+0x20>
    d45f:	90                   	nop
    d460:	f3 0f 1e fa          	endbr64 
    d464:	68 43 02 00 00       	push   0x243
    d469:	f2 e9 b1 db ff ff    	bnd jmp b020 <_init+0x20>
    d46f:	90                   	nop
    d470:	f3 0f 1e fa          	endbr64 
    d474:	68 44 02 00 00       	push   0x244
    d479:	f2 e9 a1 db ff ff    	bnd jmp b020 <_init+0x20>
    d47f:	90                   	nop
    d480:	f3 0f 1e fa          	endbr64 
    d484:	68 45 02 00 00       	push   0x245
    d489:	f2 e9 91 db ff ff    	bnd jmp b020 <_init+0x20>
    d48f:	90                   	nop
    d490:	f3 0f 1e fa          	endbr64 
    d494:	68 46 02 00 00       	push   0x246
    d499:	f2 e9 81 db ff ff    	bnd jmp b020 <_init+0x20>
    d49f:	90                   	nop
    d4a0:	f3 0f 1e fa          	endbr64 
    d4a4:	68 47 02 00 00       	push   0x247
    d4a9:	f2 e9 71 db ff ff    	bnd jmp b020 <_init+0x20>
    d4af:	90                   	nop
    d4b0:	f3 0f 1e fa          	endbr64 
    d4b4:	68 48 02 00 00       	push   0x248
    d4b9:	f2 e9 61 db ff ff    	bnd jmp b020 <_init+0x20>
    d4bf:	90                   	nop
    d4c0:	f3 0f 1e fa          	endbr64 
    d4c4:	68 49 02 00 00       	push   0x249
    d4c9:	f2 e9 51 db ff ff    	bnd jmp b020 <_init+0x20>
    d4cf:	90                   	nop
    d4d0:	f3 0f 1e fa          	endbr64 
    d4d4:	68 4a 02 00 00       	push   0x24a
    d4d9:	f2 e9 41 db ff ff    	bnd jmp b020 <_init+0x20>
    d4df:	90                   	nop
    d4e0:	f3 0f 1e fa          	endbr64 
    d4e4:	68 4b 02 00 00       	push   0x24b
    d4e9:	f2 e9 31 db ff ff    	bnd jmp b020 <_init+0x20>
    d4ef:	90                   	nop
    d4f0:	f3 0f 1e fa          	endbr64 
    d4f4:	68 4c 02 00 00       	push   0x24c
    d4f9:	f2 e9 21 db ff ff    	bnd jmp b020 <_init+0x20>
    d4ff:	90                   	nop
    d500:	f3 0f 1e fa          	endbr64 
    d504:	68 4d 02 00 00       	push   0x24d
    d509:	f2 e9 11 db ff ff    	bnd jmp b020 <_init+0x20>
    d50f:	90                   	nop
    d510:	f3 0f 1e fa          	endbr64 
    d514:	68 4e 02 00 00       	push   0x24e
    d519:	f2 e9 01 db ff ff    	bnd jmp b020 <_init+0x20>
    d51f:	90                   	nop
    d520:	f3 0f 1e fa          	endbr64 
    d524:	68 4f 02 00 00       	push   0x24f
    d529:	f2 e9 f1 da ff ff    	bnd jmp b020 <_init+0x20>
    d52f:	90                   	nop
    d530:	f3 0f 1e fa          	endbr64 
    d534:	68 50 02 00 00       	push   0x250
    d539:	f2 e9 e1 da ff ff    	bnd jmp b020 <_init+0x20>
    d53f:	90                   	nop
    d540:	f3 0f 1e fa          	endbr64 
    d544:	68 51 02 00 00       	push   0x251
    d549:	f2 e9 d1 da ff ff    	bnd jmp b020 <_init+0x20>
    d54f:	90                   	nop
    d550:	f3 0f 1e fa          	endbr64 
    d554:	68 52 02 00 00       	push   0x252
    d559:	f2 e9 c1 da ff ff    	bnd jmp b020 <_init+0x20>
    d55f:	90                   	nop
    d560:	f3 0f 1e fa          	endbr64 
    d564:	68 53 02 00 00       	push   0x253
    d569:	f2 e9 b1 da ff ff    	bnd jmp b020 <_init+0x20>
    d56f:	90                   	nop
    d570:	f3 0f 1e fa          	endbr64 
    d574:	68 54 02 00 00       	push   0x254
    d579:	f2 e9 a1 da ff ff    	bnd jmp b020 <_init+0x20>
    d57f:	90                   	nop
    d580:	f3 0f 1e fa          	endbr64 
    d584:	68 55 02 00 00       	push   0x255
    d589:	f2 e9 91 da ff ff    	bnd jmp b020 <_init+0x20>
    d58f:	90                   	nop
    d590:	f3 0f 1e fa          	endbr64 
    d594:	68 56 02 00 00       	push   0x256
    d599:	f2 e9 81 da ff ff    	bnd jmp b020 <_init+0x20>
    d59f:	90                   	nop
    d5a0:	f3 0f 1e fa          	endbr64 
    d5a4:	68 57 02 00 00       	push   0x257
    d5a9:	f2 e9 71 da ff ff    	bnd jmp b020 <_init+0x20>
    d5af:	90                   	nop
    d5b0:	f3 0f 1e fa          	endbr64 
    d5b4:	68 58 02 00 00       	push   0x258
    d5b9:	f2 e9 61 da ff ff    	bnd jmp b020 <_init+0x20>
    d5bf:	90                   	nop
    d5c0:	f3 0f 1e fa          	endbr64 
    d5c4:	68 59 02 00 00       	push   0x259
    d5c9:	f2 e9 51 da ff ff    	bnd jmp b020 <_init+0x20>
    d5cf:	90                   	nop
    d5d0:	f3 0f 1e fa          	endbr64 
    d5d4:	68 5a 02 00 00       	push   0x25a
    d5d9:	f2 e9 41 da ff ff    	bnd jmp b020 <_init+0x20>
    d5df:	90                   	nop
    d5e0:	f3 0f 1e fa          	endbr64 
    d5e4:	68 5b 02 00 00       	push   0x25b
    d5e9:	f2 e9 31 da ff ff    	bnd jmp b020 <_init+0x20>
    d5ef:	90                   	nop
    d5f0:	f3 0f 1e fa          	endbr64 
    d5f4:	68 5c 02 00 00       	push   0x25c
    d5f9:	f2 e9 21 da ff ff    	bnd jmp b020 <_init+0x20>
    d5ff:	90                   	nop
    d600:	f3 0f 1e fa          	endbr64 
    d604:	68 5d 02 00 00       	push   0x25d
    d609:	f2 e9 11 da ff ff    	bnd jmp b020 <_init+0x20>
    d60f:	90                   	nop
    d610:	f3 0f 1e fa          	endbr64 
    d614:	68 5e 02 00 00       	push   0x25e
    d619:	f2 e9 01 da ff ff    	bnd jmp b020 <_init+0x20>
    d61f:	90                   	nop
    d620:	f3 0f 1e fa          	endbr64 
    d624:	68 5f 02 00 00       	push   0x25f
    d629:	f2 e9 f1 d9 ff ff    	bnd jmp b020 <_init+0x20>
    d62f:	90                   	nop
    d630:	f3 0f 1e fa          	endbr64 
    d634:	68 60 02 00 00       	push   0x260
    d639:	f2 e9 e1 d9 ff ff    	bnd jmp b020 <_init+0x20>
    d63f:	90                   	nop
    d640:	f3 0f 1e fa          	endbr64 
    d644:	68 61 02 00 00       	push   0x261
    d649:	f2 e9 d1 d9 ff ff    	bnd jmp b020 <_init+0x20>
    d64f:	90                   	nop
    d650:	f3 0f 1e fa          	endbr64 
    d654:	68 62 02 00 00       	push   0x262
    d659:	f2 e9 c1 d9 ff ff    	bnd jmp b020 <_init+0x20>
    d65f:	90                   	nop
    d660:	f3 0f 1e fa          	endbr64 
    d664:	68 63 02 00 00       	push   0x263
    d669:	f2 e9 b1 d9 ff ff    	bnd jmp b020 <_init+0x20>
    d66f:	90                   	nop
    d670:	f3 0f 1e fa          	endbr64 
    d674:	68 64 02 00 00       	push   0x264
    d679:	f2 e9 a1 d9 ff ff    	bnd jmp b020 <_init+0x20>
    d67f:	90                   	nop
    d680:	f3 0f 1e fa          	endbr64 
    d684:	68 65 02 00 00       	push   0x265
    d689:	f2 e9 91 d9 ff ff    	bnd jmp b020 <_init+0x20>
    d68f:	90                   	nop
    d690:	f3 0f 1e fa          	endbr64 
    d694:	68 66 02 00 00       	push   0x266
    d699:	f2 e9 81 d9 ff ff    	bnd jmp b020 <_init+0x20>
    d69f:	90                   	nop
    d6a0:	f3 0f 1e fa          	endbr64 
    d6a4:	68 67 02 00 00       	push   0x267
    d6a9:	f2 e9 71 d9 ff ff    	bnd jmp b020 <_init+0x20>
    d6af:	90                   	nop
    d6b0:	f3 0f 1e fa          	endbr64 
    d6b4:	68 68 02 00 00       	push   0x268
    d6b9:	f2 e9 61 d9 ff ff    	bnd jmp b020 <_init+0x20>
    d6bf:	90                   	nop
    d6c0:	f3 0f 1e fa          	endbr64 
    d6c4:	68 69 02 00 00       	push   0x269
    d6c9:	f2 e9 51 d9 ff ff    	bnd jmp b020 <_init+0x20>
    d6cf:	90                   	nop
    d6d0:	f3 0f 1e fa          	endbr64 
    d6d4:	68 6a 02 00 00       	push   0x26a
    d6d9:	f2 e9 41 d9 ff ff    	bnd jmp b020 <_init+0x20>
    d6df:	90                   	nop
    d6e0:	f3 0f 1e fa          	endbr64 
    d6e4:	68 6b 02 00 00       	push   0x26b
    d6e9:	f2 e9 31 d9 ff ff    	bnd jmp b020 <_init+0x20>
    d6ef:	90                   	nop
    d6f0:	f3 0f 1e fa          	endbr64 
    d6f4:	68 6c 02 00 00       	push   0x26c
    d6f9:	f2 e9 21 d9 ff ff    	bnd jmp b020 <_init+0x20>
    d6ff:	90                   	nop
    d700:	f3 0f 1e fa          	endbr64 
    d704:	68 6d 02 00 00       	push   0x26d
    d709:	f2 e9 11 d9 ff ff    	bnd jmp b020 <_init+0x20>
    d70f:	90                   	nop
    d710:	f3 0f 1e fa          	endbr64 
    d714:	68 6e 02 00 00       	push   0x26e
    d719:	f2 e9 01 d9 ff ff    	bnd jmp b020 <_init+0x20>
    d71f:	90                   	nop
    d720:	f3 0f 1e fa          	endbr64 
    d724:	68 6f 02 00 00       	push   0x26f
    d729:	f2 e9 f1 d8 ff ff    	bnd jmp b020 <_init+0x20>
    d72f:	90                   	nop
    d730:	f3 0f 1e fa          	endbr64 
    d734:	68 70 02 00 00       	push   0x270
    d739:	f2 e9 e1 d8 ff ff    	bnd jmp b020 <_init+0x20>
    d73f:	90                   	nop
    d740:	f3 0f 1e fa          	endbr64 
    d744:	68 71 02 00 00       	push   0x271
    d749:	f2 e9 d1 d8 ff ff    	bnd jmp b020 <_init+0x20>
    d74f:	90                   	nop
    d750:	f3 0f 1e fa          	endbr64 
    d754:	68 72 02 00 00       	push   0x272
    d759:	f2 e9 c1 d8 ff ff    	bnd jmp b020 <_init+0x20>
    d75f:	90                   	nop
    d760:	f3 0f 1e fa          	endbr64 
    d764:	68 73 02 00 00       	push   0x273
    d769:	f2 e9 b1 d8 ff ff    	bnd jmp b020 <_init+0x20>
    d76f:	90                   	nop
    d770:	f3 0f 1e fa          	endbr64 
    d774:	68 74 02 00 00       	push   0x274
    d779:	f2 e9 a1 d8 ff ff    	bnd jmp b020 <_init+0x20>
    d77f:	90                   	nop
    d780:	f3 0f 1e fa          	endbr64 
    d784:	68 75 02 00 00       	push   0x275
    d789:	f2 e9 91 d8 ff ff    	bnd jmp b020 <_init+0x20>
    d78f:	90                   	nop
    d790:	f3 0f 1e fa          	endbr64 
    d794:	68 76 02 00 00       	push   0x276
    d799:	f2 e9 81 d8 ff ff    	bnd jmp b020 <_init+0x20>
    d79f:	90                   	nop
    d7a0:	f3 0f 1e fa          	endbr64 
    d7a4:	68 77 02 00 00       	push   0x277
    d7a9:	f2 e9 71 d8 ff ff    	bnd jmp b020 <_init+0x20>
    d7af:	90                   	nop
    d7b0:	f3 0f 1e fa          	endbr64 
    d7b4:	68 78 02 00 00       	push   0x278
    d7b9:	f2 e9 61 d8 ff ff    	bnd jmp b020 <_init+0x20>
    d7bf:	90                   	nop
    d7c0:	f3 0f 1e fa          	endbr64 
    d7c4:	68 79 02 00 00       	push   0x279
    d7c9:	f2 e9 51 d8 ff ff    	bnd jmp b020 <_init+0x20>
    d7cf:	90                   	nop
    d7d0:	f3 0f 1e fa          	endbr64 
    d7d4:	68 7a 02 00 00       	push   0x27a
    d7d9:	f2 e9 41 d8 ff ff    	bnd jmp b020 <_init+0x20>
    d7df:	90                   	nop
    d7e0:	f3 0f 1e fa          	endbr64 
    d7e4:	68 7b 02 00 00       	push   0x27b
    d7e9:	f2 e9 31 d8 ff ff    	bnd jmp b020 <_init+0x20>
    d7ef:	90                   	nop
    d7f0:	f3 0f 1e fa          	endbr64 
    d7f4:	68 7c 02 00 00       	push   0x27c
    d7f9:	f2 e9 21 d8 ff ff    	bnd jmp b020 <_init+0x20>
    d7ff:	90                   	nop
    d800:	f3 0f 1e fa          	endbr64 
    d804:	68 7d 02 00 00       	push   0x27d
    d809:	f2 e9 11 d8 ff ff    	bnd jmp b020 <_init+0x20>
    d80f:	90                   	nop
    d810:	f3 0f 1e fa          	endbr64 
    d814:	68 7e 02 00 00       	push   0x27e
    d819:	f2 e9 01 d8 ff ff    	bnd jmp b020 <_init+0x20>
    d81f:	90                   	nop
    d820:	f3 0f 1e fa          	endbr64 
    d824:	68 7f 02 00 00       	push   0x27f
    d829:	f2 e9 f1 d7 ff ff    	bnd jmp b020 <_init+0x20>
    d82f:	90                   	nop
    d830:	f3 0f 1e fa          	endbr64 
    d834:	68 80 02 00 00       	push   0x280
    d839:	f2 e9 e1 d7 ff ff    	bnd jmp b020 <_init+0x20>
    d83f:	90                   	nop
    d840:	f3 0f 1e fa          	endbr64 
    d844:	68 81 02 00 00       	push   0x281
    d849:	f2 e9 d1 d7 ff ff    	bnd jmp b020 <_init+0x20>
    d84f:	90                   	nop
    d850:	f3 0f 1e fa          	endbr64 
    d854:	68 82 02 00 00       	push   0x282
    d859:	f2 e9 c1 d7 ff ff    	bnd jmp b020 <_init+0x20>
    d85f:	90                   	nop
    d860:	f3 0f 1e fa          	endbr64 
    d864:	68 83 02 00 00       	push   0x283
    d869:	f2 e9 b1 d7 ff ff    	bnd jmp b020 <_init+0x20>
    d86f:	90                   	nop
    d870:	f3 0f 1e fa          	endbr64 
    d874:	68 84 02 00 00       	push   0x284
    d879:	f2 e9 a1 d7 ff ff    	bnd jmp b020 <_init+0x20>
    d87f:	90                   	nop
    d880:	f3 0f 1e fa          	endbr64 
    d884:	68 85 02 00 00       	push   0x285
    d889:	f2 e9 91 d7 ff ff    	bnd jmp b020 <_init+0x20>
    d88f:	90                   	nop
    d890:	f3 0f 1e fa          	endbr64 
    d894:	68 86 02 00 00       	push   0x286
    d899:	f2 e9 81 d7 ff ff    	bnd jmp b020 <_init+0x20>
    d89f:	90                   	nop
    d8a0:	f3 0f 1e fa          	endbr64 
    d8a4:	68 87 02 00 00       	push   0x287
    d8a9:	f2 e9 71 d7 ff ff    	bnd jmp b020 <_init+0x20>
    d8af:	90                   	nop
    d8b0:	f3 0f 1e fa          	endbr64 
    d8b4:	68 88 02 00 00       	push   0x288
    d8b9:	f2 e9 61 d7 ff ff    	bnd jmp b020 <_init+0x20>
    d8bf:	90                   	nop
    d8c0:	f3 0f 1e fa          	endbr64 
    d8c4:	68 89 02 00 00       	push   0x289
    d8c9:	f2 e9 51 d7 ff ff    	bnd jmp b020 <_init+0x20>
    d8cf:	90                   	nop
    d8d0:	f3 0f 1e fa          	endbr64 
    d8d4:	68 8a 02 00 00       	push   0x28a
    d8d9:	f2 e9 41 d7 ff ff    	bnd jmp b020 <_init+0x20>
    d8df:	90                   	nop
    d8e0:	f3 0f 1e fa          	endbr64 
    d8e4:	68 8b 02 00 00       	push   0x28b
    d8e9:	f2 e9 31 d7 ff ff    	bnd jmp b020 <_init+0x20>
    d8ef:	90                   	nop
    d8f0:	f3 0f 1e fa          	endbr64 
    d8f4:	68 8c 02 00 00       	push   0x28c
    d8f9:	f2 e9 21 d7 ff ff    	bnd jmp b020 <_init+0x20>
    d8ff:	90                   	nop
    d900:	f3 0f 1e fa          	endbr64 
    d904:	68 8d 02 00 00       	push   0x28d
    d909:	f2 e9 11 d7 ff ff    	bnd jmp b020 <_init+0x20>
    d90f:	90                   	nop
    d910:	f3 0f 1e fa          	endbr64 
    d914:	68 8e 02 00 00       	push   0x28e
    d919:	f2 e9 01 d7 ff ff    	bnd jmp b020 <_init+0x20>
    d91f:	90                   	nop
    d920:	f3 0f 1e fa          	endbr64 
    d924:	68 8f 02 00 00       	push   0x28f
    d929:	f2 e9 f1 d6 ff ff    	bnd jmp b020 <_init+0x20>
    d92f:	90                   	nop
    d930:	f3 0f 1e fa          	endbr64 
    d934:	68 90 02 00 00       	push   0x290
    d939:	f2 e9 e1 d6 ff ff    	bnd jmp b020 <_init+0x20>
    d93f:	90                   	nop
    d940:	f3 0f 1e fa          	endbr64 
    d944:	68 91 02 00 00       	push   0x291
    d949:	f2 e9 d1 d6 ff ff    	bnd jmp b020 <_init+0x20>
    d94f:	90                   	nop
    d950:	f3 0f 1e fa          	endbr64 
    d954:	68 92 02 00 00       	push   0x292
    d959:	f2 e9 c1 d6 ff ff    	bnd jmp b020 <_init+0x20>
    d95f:	90                   	nop
    d960:	f3 0f 1e fa          	endbr64 
    d964:	68 93 02 00 00       	push   0x293
    d969:	f2 e9 b1 d6 ff ff    	bnd jmp b020 <_init+0x20>
    d96f:	90                   	nop
    d970:	f3 0f 1e fa          	endbr64 
    d974:	68 94 02 00 00       	push   0x294
    d979:	f2 e9 a1 d6 ff ff    	bnd jmp b020 <_init+0x20>
    d97f:	90                   	nop
    d980:	f3 0f 1e fa          	endbr64 
    d984:	68 95 02 00 00       	push   0x295
    d989:	f2 e9 91 d6 ff ff    	bnd jmp b020 <_init+0x20>
    d98f:	90                   	nop
    d990:	f3 0f 1e fa          	endbr64 
    d994:	68 96 02 00 00       	push   0x296
    d999:	f2 e9 81 d6 ff ff    	bnd jmp b020 <_init+0x20>
    d99f:	90                   	nop
    d9a0:	f3 0f 1e fa          	endbr64 
    d9a4:	68 97 02 00 00       	push   0x297
    d9a9:	f2 e9 71 d6 ff ff    	bnd jmp b020 <_init+0x20>
    d9af:	90                   	nop
    d9b0:	f3 0f 1e fa          	endbr64 
    d9b4:	68 98 02 00 00       	push   0x298
    d9b9:	f2 e9 61 d6 ff ff    	bnd jmp b020 <_init+0x20>
    d9bf:	90                   	nop
    d9c0:	f3 0f 1e fa          	endbr64 
    d9c4:	68 99 02 00 00       	push   0x299
    d9c9:	f2 e9 51 d6 ff ff    	bnd jmp b020 <_init+0x20>
    d9cf:	90                   	nop
    d9d0:	f3 0f 1e fa          	endbr64 
    d9d4:	68 9a 02 00 00       	push   0x29a
    d9d9:	f2 e9 41 d6 ff ff    	bnd jmp b020 <_init+0x20>
    d9df:	90                   	nop
    d9e0:	f3 0f 1e fa          	endbr64 
    d9e4:	68 9b 02 00 00       	push   0x29b
    d9e9:	f2 e9 31 d6 ff ff    	bnd jmp b020 <_init+0x20>
    d9ef:	90                   	nop
    d9f0:	f3 0f 1e fa          	endbr64 
    d9f4:	68 9c 02 00 00       	push   0x29c
    d9f9:	f2 e9 21 d6 ff ff    	bnd jmp b020 <_init+0x20>
    d9ff:	90                   	nop
    da00:	f3 0f 1e fa          	endbr64 
    da04:	68 9d 02 00 00       	push   0x29d
    da09:	f2 e9 11 d6 ff ff    	bnd jmp b020 <_init+0x20>
    da0f:	90                   	nop
    da10:	f3 0f 1e fa          	endbr64 
    da14:	68 9e 02 00 00       	push   0x29e
    da19:	f2 e9 01 d6 ff ff    	bnd jmp b020 <_init+0x20>
    da1f:	90                   	nop
    da20:	f3 0f 1e fa          	endbr64 
    da24:	68 9f 02 00 00       	push   0x29f
    da29:	f2 e9 f1 d5 ff ff    	bnd jmp b020 <_init+0x20>
    da2f:	90                   	nop
    da30:	f3 0f 1e fa          	endbr64 
    da34:	68 a0 02 00 00       	push   0x2a0
    da39:	f2 e9 e1 d5 ff ff    	bnd jmp b020 <_init+0x20>
    da3f:	90                   	nop
    da40:	f3 0f 1e fa          	endbr64 
    da44:	68 a1 02 00 00       	push   0x2a1
    da49:	f2 e9 d1 d5 ff ff    	bnd jmp b020 <_init+0x20>
    da4f:	90                   	nop
    da50:	f3 0f 1e fa          	endbr64 
    da54:	68 a2 02 00 00       	push   0x2a2
    da59:	f2 e9 c1 d5 ff ff    	bnd jmp b020 <_init+0x20>
    da5f:	90                   	nop
    da60:	f3 0f 1e fa          	endbr64 
    da64:	68 a3 02 00 00       	push   0x2a3
    da69:	f2 e9 b1 d5 ff ff    	bnd jmp b020 <_init+0x20>
    da6f:	90                   	nop
    da70:	f3 0f 1e fa          	endbr64 
    da74:	68 a4 02 00 00       	push   0x2a4
    da79:	f2 e9 a1 d5 ff ff    	bnd jmp b020 <_init+0x20>
    da7f:	90                   	nop
    da80:	f3 0f 1e fa          	endbr64 
    da84:	68 a5 02 00 00       	push   0x2a5
    da89:	f2 e9 91 d5 ff ff    	bnd jmp b020 <_init+0x20>
    da8f:	90                   	nop
    da90:	f3 0f 1e fa          	endbr64 
    da94:	68 a6 02 00 00       	push   0x2a6
    da99:	f2 e9 81 d5 ff ff    	bnd jmp b020 <_init+0x20>
    da9f:	90                   	nop
    daa0:	f3 0f 1e fa          	endbr64 
    daa4:	68 a7 02 00 00       	push   0x2a7
    daa9:	f2 e9 71 d5 ff ff    	bnd jmp b020 <_init+0x20>
    daaf:	90                   	nop
    dab0:	f3 0f 1e fa          	endbr64 
    dab4:	68 a8 02 00 00       	push   0x2a8
    dab9:	f2 e9 61 d5 ff ff    	bnd jmp b020 <_init+0x20>
    dabf:	90                   	nop
    dac0:	f3 0f 1e fa          	endbr64 
    dac4:	68 a9 02 00 00       	push   0x2a9
    dac9:	f2 e9 51 d5 ff ff    	bnd jmp b020 <_init+0x20>
    dacf:	90                   	nop
    dad0:	f3 0f 1e fa          	endbr64 
    dad4:	68 aa 02 00 00       	push   0x2aa
    dad9:	f2 e9 41 d5 ff ff    	bnd jmp b020 <_init+0x20>
    dadf:	90                   	nop
    dae0:	f3 0f 1e fa          	endbr64 
    dae4:	68 ab 02 00 00       	push   0x2ab
    dae9:	f2 e9 31 d5 ff ff    	bnd jmp b020 <_init+0x20>
    daef:	90                   	nop
    daf0:	f3 0f 1e fa          	endbr64 
    daf4:	68 ac 02 00 00       	push   0x2ac
    daf9:	f2 e9 21 d5 ff ff    	bnd jmp b020 <_init+0x20>
    daff:	90                   	nop
    db00:	f3 0f 1e fa          	endbr64 
    db04:	68 ad 02 00 00       	push   0x2ad
    db09:	f2 e9 11 d5 ff ff    	bnd jmp b020 <_init+0x20>
    db0f:	90                   	nop
    db10:	f3 0f 1e fa          	endbr64 
    db14:	68 ae 02 00 00       	push   0x2ae
    db19:	f2 e9 01 d5 ff ff    	bnd jmp b020 <_init+0x20>
    db1f:	90                   	nop
    db20:	f3 0f 1e fa          	endbr64 
    db24:	68 af 02 00 00       	push   0x2af
    db29:	f2 e9 f1 d4 ff ff    	bnd jmp b020 <_init+0x20>
    db2f:	90                   	nop
    db30:	f3 0f 1e fa          	endbr64 
    db34:	68 b0 02 00 00       	push   0x2b0
    db39:	f2 e9 e1 d4 ff ff    	bnd jmp b020 <_init+0x20>
    db3f:	90                   	nop
    db40:	f3 0f 1e fa          	endbr64 
    db44:	68 b1 02 00 00       	push   0x2b1
    db49:	f2 e9 d1 d4 ff ff    	bnd jmp b020 <_init+0x20>
    db4f:	90                   	nop
    db50:	f3 0f 1e fa          	endbr64 
    db54:	68 b2 02 00 00       	push   0x2b2
    db59:	f2 e9 c1 d4 ff ff    	bnd jmp b020 <_init+0x20>
    db5f:	90                   	nop
    db60:	f3 0f 1e fa          	endbr64 
    db64:	68 b3 02 00 00       	push   0x2b3
    db69:	f2 e9 b1 d4 ff ff    	bnd jmp b020 <_init+0x20>
    db6f:	90                   	nop

Disassembly of section .plt.got:

000000000000db70 <__cxa_finalize@plt>:
    db70:	f3 0f 1e fa          	endbr64 
    db74:	f2 ff 25 75 b4 00 00 	bnd jmp QWORD PTR [rip+0xb475]        # 18ff0 <__cxa_finalize@GLIBC_2.2.5>
    db7b:	0f 1f 44 00 00       	nop    DWORD PTR [rax+rax*1+0x0]

Disassembly of section .plt.sec:

000000000000db80 <code_606@plt>:
    db80:	f3 0f 1e fa          	endbr64 
    db84:	f2 ff 25 a5 9e 00 00 	bnd jmp QWORD PTR [rip+0x9ea5]        # 17a30 <code_606@Base>
    db8b:	0f 1f 44 00 00       	nop    DWORD PTR [rax+rax*1+0x0]

000000000000db90 <code_641@plt>:
    db90:	f3 0f 1e fa          	endbr64 
    db94:	f2 ff 25 9d 9e 00 00 	bnd jmp QWORD PTR [rip+0x9e9d]        # 17a38 <code_641@Base>
    db9b:	0f 1f 44 00 00       	nop    DWORD PTR [rax+rax*1+0x0]

000000000000dba0 <code_175@plt>:
    dba0:	f3 0f 1e fa          	endbr64 
    dba4:	f2 ff 25 95 9e 00 00 	bnd jmp QWORD PTR [rip+0x9e95]        # 17a40 <code_175@Base>
    dbab:	0f 1f 44 00 00       	nop    DWORD PTR [rax+rax*1+0x0]

000000000000dbb0 <code_1272@plt>:
    dbb0:	f3 0f 1e fa          	endbr64 
    dbb4:	f2 ff 25 8d 9e 00 00 	bnd jmp QWORD PTR [rip+0x9e8d]        # 17a48 <code_1272@Base>
    dbbb:	0f 1f 44 00 00       	nop    DWORD PTR [rax+rax*1+0x0]

000000000000dbc0 <code_1276@plt>:
    dbc0:	f3 0f 1e fa          	endbr64 
    dbc4:	f2 ff 25 85 9e 00 00 	bnd jmp QWORD PTR [rip+0x9e85]        # 17a50 <code_1276@Base>
    dbcb:	0f 1f 44 00 00       	nop    DWORD PTR [rax+rax*1+0x0]

000000000000dbd0 <code_286@plt>:
    dbd0:	f3 0f 1e fa          	endbr64 
    dbd4:	f2 ff 25 7d 9e 00 00 	bnd jmp QWORD PTR [rip+0x9e7d]        # 17a58 <code_286@Base>
    dbdb:	0f 1f 44 00 00       	nop    DWORD PTR [rax+rax*1+0x0]

000000000000dbe0 <code_249@plt>:
    dbe0:	f3 0f 1e fa          	endbr64 
    dbe4:	f2 ff 25 75 9e 00 00 	bnd jmp QWORD PTR [rip+0x9e75]        # 17a60 <code_249@Base>
    dbeb:	0f 1f 44 00 00       	nop    DWORD PTR [rax+rax*1+0x0]

000000000000dbf0 <code_502@plt>:
    dbf0:	f3 0f 1e fa          	endbr64 
    dbf4:	f2 ff 25 6d 9e 00 00 	bnd jmp QWORD PTR [rip+0x9e6d]        # 17a68 <code_502@Base>
    dbfb:	0f 1f 44 00 00       	nop    DWORD PTR [rax+rax*1+0x0]

000000000000dc00 <code_284@plt>:
    dc00:	f3 0f 1e fa          	endbr64 
    dc04:	f2 ff 25 65 9e 00 00 	bnd jmp QWORD PTR [rip+0x9e65]        # 17a70 <code_284@Base>
    dc0b:	0f 1f 44 00 00       	nop    DWORD PTR [rax+rax*1+0x0]

000000000000dc10 <code_208@plt>:
    dc10:	f3 0f 1e fa          	endbr64 
    dc14:	f2 ff 25 5d 9e 00 00 	bnd jmp QWORD PTR [rip+0x9e5d]        # 17a78 <code_208@Base>
    dc1b:	0f 1f 44 00 00       	nop    DWORD PTR [rax+rax*1+0x0]

000000000000dc20 <code_280@plt>:
    dc20:	f3 0f 1e fa          	endbr64 
    dc24:	f2 ff 25 55 9e 00 00 	bnd jmp QWORD PTR [rip+0x9e55]        # 17a80 <code_280@Base>
    dc2b:	0f 1f 44 00 00       	nop    DWORD PTR [rax+rax*1+0x0]

000000000000dc30 <code_541@plt>:
    dc30:	f3 0f 1e fa          	endbr64 
    dc34:	f2 ff 25 4d 9e 00 00 	bnd jmp QWORD PTR [rip+0x9e4d]        # 17a88 <code_541@Base>
    dc3b:	0f 1f 44 00 00       	nop    DWORD PTR [rax+rax*1+0x0]

000000000000dc40 <code_206@plt>:
    dc40:	f3 0f 1e fa          	endbr64 
    dc44:	f2 ff 25 45 9e 00 00 	bnd jmp QWORD PTR [rip+0x9e45]        # 17a90 <code_206@Base>
    dc4b:	0f 1f 44 00 00       	nop    DWORD PTR [rax+rax*1+0x0]

000000000000dc50 <code_786@plt>:
    dc50:	f3 0f 1e fa          	endbr64 
    dc54:	f2 ff 25 3d 9e 00 00 	bnd jmp QWORD PTR [rip+0x9e3d]        # 17a98 <code_786@Base>
    dc5b:	0f 1f 44 00 00       	nop    DWORD PTR [rax+rax*1+0x0]

000000000000dc60 <code_1237@plt>:
    dc60:	f3 0f 1e fa          	endbr64 
    dc64:	f2 ff 25 35 9e 00 00 	bnd jmp QWORD PTR [rip+0x9e35]        # 17aa0 <code_1237@Base>
    dc6b:	0f 1f 44 00 00       	nop    DWORD PTR [rax+rax*1+0x0]

000000000000dc70 <code_1008@plt>:
    dc70:	f3 0f 1e fa          	endbr64 
    dc74:	f2 ff 25 2d 9e 00 00 	bnd jmp QWORD PTR [rip+0x9e2d]        # 17aa8 <code_1008@Base>
    dc7b:	0f 1f 44 00 00       	nop    DWORD PTR [rax+rax*1+0x0]

000000000000dc80 <code_788@plt>:
    dc80:	f3 0f 1e fa          	endbr64 
    dc84:	f2 ff 25 25 9e 00 00 	bnd jmp QWORD PTR [rip+0x9e25]        # 17ab0 <code_788@Base>
    dc8b:	0f 1f 44 00 00       	nop    DWORD PTR [rax+rax*1+0x0]

000000000000dc90 <code_704@plt>:
    dc90:	f3 0f 1e fa          	endbr64 
    dc94:	f2 ff 25 1d 9e 00 00 	bnd jmp QWORD PTR [rip+0x9e1d]        # 17ab8 <code_704@Base>
    dc9b:	0f 1f 44 00 00       	nop    DWORD PTR [rax+rax*1+0x0]

000000000000dca0 <code_741@plt>:
    dca0:	f3 0f 1e fa          	endbr64 
    dca4:	f2 ff 25 15 9e 00 00 	bnd jmp QWORD PTR [rip+0x9e15]        # 17ac0 <code_741@Base>
    dcab:	0f 1f 44 00 00       	nop    DWORD PTR [rax+rax*1+0x0]

000000000000dcb0 <code_1045@plt>:
    dcb0:	f3 0f 1e fa          	endbr64 
    dcb4:	f2 ff 25 0d 9e 00 00 	bnd jmp QWORD PTR [rip+0x9e0d]        # 17ac8 <code_1045@Base>
    dcbb:	0f 1f 44 00 00       	nop    DWORD PTR [rax+rax*1+0x0]

000000000000dcc0 <code_1235@plt>:
    dcc0:	f3 0f 1e fa          	endbr64 
    dcc4:	f2 ff 25 05 9e 00 00 	bnd jmp QWORD PTR [rip+0x9e05]        # 17ad0 <code_1235@Base>
    dccb:	0f 1f 44 00 00       	nop    DWORD PTR [rax+rax*1+0x0]

000000000000dcd0 <code_738@plt>:
    dcd0:	f3 0f 1e fa          	endbr64 
    dcd4:	f2 ff 25 fd 9d 00 00 	bnd jmp QWORD PTR [rip+0x9dfd]        # 17ad8 <code_738@Base>
    dcdb:	0f 1f 44 00 00       	nop    DWORD PTR [rax+rax*1+0x0]

000000000000dce0 <code_706@plt>:
    dce0:	f3 0f 1e fa          	endbr64 
    dce4:	f2 ff 25 f5 9d 00 00 	bnd jmp QWORD PTR [rip+0x9df5]        # 17ae0 <code_706@Base>
    dceb:	0f 1f 44 00 00       	nop    DWORD PTR [rax+rax*1+0x0]

000000000000dcf0 <code_1239@plt>:
    dcf0:	f3 0f 1e fa          	endbr64 
    dcf4:	f2 ff 25 ed 9d 00 00 	bnd jmp QWORD PTR [rip+0x9ded]        # 17ae8 <code_1239@Base>
    dcfb:	0f 1f 44 00 00       	nop    DWORD PTR [rax+rax*1+0x0]

000000000000dd00 <code_1152@plt>:
    dd00:	f3 0f 1e fa          	endbr64 
    dd04:	f2 ff 25 e5 9d 00 00 	bnd jmp QWORD PTR [rip+0x9de5]        # 17af0 <code_1152@Base>
    dd0b:	0f 1f 44 00 00       	nop    DWORD PTR [rax+rax*1+0x0]

000000000000dd10 <code_849@plt>:
    dd10:	f3 0f 1e fa          	endbr64 
    dd14:	f2 ff 25 dd 9d 00 00 	bnd jmp QWORD PTR [rip+0x9ddd]        # 17af8 <code_849@Base>
    dd1b:	0f 1f 44 00 00       	nop    DWORD PTR [rax+rax*1+0x0]

000000000000dd20 <code_775@plt>:
    dd20:	f3 0f 1e fa          	endbr64 
    dd24:	f2 ff 25 d5 9d 00 00 	bnd jmp QWORD PTR [rip+0x9dd5]        # 17b00 <code_775@Base>
    dd2b:	0f 1f 44 00 00       	nop    DWORD PTR [rax+rax*1+0x0]

000000000000dd30 <code_1004@plt>:
    dd30:	f3 0f 1e fa          	endbr64 
    dd34:	f2 ff 25 cd 9d 00 00 	bnd jmp QWORD PTR [rip+0x9dcd]        # 17b08 <code_1004@Base>
    dd3b:	0f 1f 44 00 00       	nop    DWORD PTR [rax+rax*1+0x0]

000000000000dd40 <code_1193@plt>:
    dd40:	f3 0f 1e fa          	endbr64 
    dd44:	f2 ff 25 c5 9d 00 00 	bnd jmp QWORD PTR [rip+0x9dc5]        # 17b10 <code_1193@Base>
    dd4b:	0f 1f 44 00 00       	nop    DWORD PTR [rax+rax*1+0x0]

000000000000dd50 <code_1156@plt>:
    dd50:	f3 0f 1e fa          	endbr64 
    dd54:	f2 ff 25 bd 9d 00 00 	bnd jmp QWORD PTR [rip+0x9dbd]        # 17b18 <code_1156@Base>
    dd5b:	0f 1f 44 00 00       	nop    DWORD PTR [rax+rax*1+0x0]

000000000000dd60 <code_771@plt>:
    dd60:	f3 0f 1e fa          	endbr64 
    dd64:	f2 ff 25 b5 9d 00 00 	bnd jmp QWORD PTR [rip+0x9db5]        # 17b20 <code_771@Base>
    dd6b:	0f 1f 44 00 00       	nop    DWORD PTR [rax+rax*1+0x0]

000000000000dd70 <code_1191@plt>:
    dd70:	f3 0f 1e fa          	endbr64 
    dd74:	f2 ff 25 ad 9d 00 00 	bnd jmp QWORD PTR [rip+0x9dad]        # 17b28 <code_1191@Base>
    dd7b:	0f 1f 44 00 00       	nop    DWORD PTR [rax+rax*1+0x0]

000000000000dd80 <code_200@plt>:
    dd80:	f3 0f 1e fa          	endbr64 
    dd84:	f2 ff 25 a5 9d 00 00 	bnd jmp QWORD PTR [rip+0x9da5]        # 17b30 <code_200@Base>
    dd8b:	0f 1f 44 00 00       	nop    DWORD PTR [rax+rax*1+0x0]

000000000000dd90 <code_380@plt>:
    dd90:	f3 0f 1e fa          	endbr64 
    dd94:	f2 ff 25 9d 9d 00 00 	bnd jmp QWORD PTR [rip+0x9d9d]        # 17b38 <code_380@Base>
    dd9b:	0f 1f 44 00 00       	nop    DWORD PTR [rax+rax*1+0x0]

000000000000dda0 <code_1309@plt>:
    dda0:	f3 0f 1e fa          	endbr64 
    dda4:	f2 ff 25 95 9d 00 00 	bnd jmp QWORD PTR [rip+0x9d95]        # 17b40 <code_1309@Base>
    ddab:	0f 1f 44 00 00       	nop    DWORD PTR [rax+rax*1+0x0]

000000000000ddb0 <code_1136@plt>:
    ddb0:	f3 0f 1e fa          	endbr64 
    ddb4:	f2 ff 25 8d 9d 00 00 	bnd jmp QWORD PTR [rip+0x9d8d]        # 17b48 <code_1136@Base>
    ddbb:	0f 1f 44 00 00       	nop    DWORD PTR [rax+rax*1+0x0]

000000000000ddc0 <code_847@plt>:
    ddc0:	f3 0f 1e fa          	endbr64 
    ddc4:	f2 ff 25 85 9d 00 00 	bnd jmp QWORD PTR [rip+0x9d85]        # 17b50 <code_847@Base>
    ddcb:	0f 1f 44 00 00       	nop    DWORD PTR [rax+rax*1+0x0]

000000000000ddd0 <code_877@plt>:
    ddd0:	f3 0f 1e fa          	endbr64 
    ddd4:	f2 ff 25 7d 9d 00 00 	bnd jmp QWORD PTR [rip+0x9d7d]        # 17b58 <code_877@Base>
    dddb:	0f 1f 44 00 00       	nop    DWORD PTR [rax+rax*1+0x0]

000000000000dde0 <code_808@plt>:
    dde0:	f3 0f 1e fa          	endbr64 
    dde4:	f2 ff 25 75 9d 00 00 	bnd jmp QWORD PTR [rip+0x9d75]        # 17b60 <code_808@Base>
    ddeb:	0f 1f 44 00 00       	nop    DWORD PTR [rax+rax*1+0x0]

000000000000ddf0 <code_57@plt>:
    ddf0:	f3 0f 1e fa          	endbr64 
    ddf4:	f2 ff 25 6d 9d 00 00 	bnd jmp QWORD PTR [rip+0x9d6d]        # 17b68 <code_57@Base>
    ddfb:	0f 1f 44 00 00       	nop    DWORD PTR [rax+rax*1+0x0]

000000000000de00 <code_1132@plt>:
    de00:	f3 0f 1e fa          	endbr64 
    de04:	f2 ff 25 65 9d 00 00 	bnd jmp QWORD PTR [rip+0x9d65]        # 17b70 <code_1132@Base>
    de0b:	0f 1f 44 00 00       	nop    DWORD PTR [rax+rax*1+0x0]

000000000000de10 <code_1134@plt>:
    de10:	f3 0f 1e fa          	endbr64 
    de14:	f2 ff 25 5d 9d 00 00 	bnd jmp QWORD PTR [rip+0x9d5d]        # 17b78 <code_1134@Base>
    de1b:	0f 1f 44 00 00       	nop    DWORD PTR [rax+rax*1+0x0]

000000000000de20 <code_841@plt>:
    de20:	f3 0f 1e fa          	endbr64 
    de24:	f2 ff 25 55 9d 00 00 	bnd jmp QWORD PTR [rip+0x9d55]        # 17b80 <code_841@Base>
    de2b:	0f 1f 44 00 00       	nop    DWORD PTR [rax+rax*1+0x0]

000000000000de30 <code_1348@plt>:
    de30:	f3 0f 1e fa          	endbr64 
    de34:	f2 ff 25 4d 9d 00 00 	bnd jmp QWORD PTR [rip+0x9d4d]        # 17b88 <code_1348@Base>
    de3b:	0f 1f 44 00 00       	nop    DWORD PTR [rax+rax*1+0x0]

000000000000de40 <code_1346@plt>:
    de40:	f3 0f 1e fa          	endbr64 
    de44:	f2 ff 25 45 9d 00 00 	bnd jmp QWORD PTR [rip+0x9d45]        # 17b90 <code_1346@Base>
    de4b:	0f 1f 44 00 00       	nop    DWORD PTR [rax+rax*1+0x0]

000000000000de50 <code_10@plt>:
    de50:	f3 0f 1e fa          	endbr64 
    de54:	f2 ff 25 3d 9d 00 00 	bnd jmp QWORD PTR [rip+0x9d3d]        # 17b98 <code_10@Base>
    de5b:	0f 1f 44 00 00       	nop    DWORD PTR [rax+rax*1+0x0]

000000000000de60 <code_1291@plt>:
    de60:	f3 0f 1e fa          	endbr64 
    de64:	f2 ff 25 35 9d 00 00 	bnd jmp QWORD PTR [rip+0x9d35]        # 17ba0 <code_1291@Base>
    de6b:	0f 1f 44 00 00       	nop    DWORD PTR [rax+rax*1+0x0]

000000000000de70 <code_884@plt>:
    de70:	f3 0f 1e fa          	endbr64 
    de74:	f2 ff 25 2d 9d 00 00 	bnd jmp QWORD PTR [rip+0x9d2d]        # 17ba8 <code_884@Base>
    de7b:	0f 1f 44 00 00       	nop    DWORD PTR [rax+rax*1+0x0]

000000000000de80 <code_1293@plt>:
    de80:	f3 0f 1e fa          	endbr64 
    de84:	f2 ff 25 25 9d 00 00 	bnd jmp QWORD PTR [rip+0x9d25]        # 17bb0 <code_1293@Base>
    de8b:	0f 1f 44 00 00       	nop    DWORD PTR [rax+rax*1+0x0]

000000000000de90 <code_1385@plt>:
    de90:	f3 0f 1e fa          	endbr64 
    de94:	f2 ff 25 1d 9d 00 00 	bnd jmp QWORD PTR [rip+0x9d1d]        # 17bb8 <code_1385@Base>
    de9b:	0f 1f 44 00 00       	nop    DWORD PTR [rax+rax*1+0x0]

000000000000dea0 <code_300@plt>:
    dea0:	f3 0f 1e fa          	endbr64 
    dea4:	f2 ff 25 15 9d 00 00 	bnd jmp QWORD PTR [rip+0x9d15]        # 17bc0 <code_300@Base>
    deab:	0f 1f 44 00 00       	nop    DWORD PTR [rax+rax*1+0x0]

000000000000deb0 <code_473@plt>:
    deb0:	f3 0f 1e fa          	endbr64 
    deb4:	f2 ff 25 0d 9d 00 00 	bnd jmp QWORD PTR [rip+0x9d0d]        # 17bc8 <code_473@Base>
    debb:	0f 1f 44 00 00       	nop    DWORD PTR [rax+rax*1+0x0]

000000000000dec0 <code_1250@plt>:
    dec0:	f3 0f 1e fa          	endbr64 
    dec4:	f2 ff 25 05 9d 00 00 	bnd jmp QWORD PTR [rip+0x9d05]        # 17bd0 <code_1250@Base>
    decb:	0f 1f 44 00 00       	nop    DWORD PTR [rax+rax*1+0x0]

000000000000ded0 <code_304@plt>:
    ded0:	f3 0f 1e fa          	endbr64 
    ded4:	f2 ff 25 fd 9c 00 00 	bnd jmp QWORD PTR [rip+0x9cfd]        # 17bd8 <code_304@Base>
    dedb:	0f 1f 44 00 00       	nop    DWORD PTR [rax+rax*1+0x0]

000000000000dee0 <code_949@plt>:
    dee0:	f3 0f 1e fa          	endbr64 
    dee4:	f2 ff 25 f5 9c 00 00 	bnd jmp QWORD PTR [rip+0x9cf5]        # 17be0 <code_949@Base>
    deeb:	0f 1f 44 00 00       	nop    DWORD PTR [rax+rax*1+0x0]

000000000000def0 <code_1254@plt>:
    def0:	f3 0f 1e fa          	endbr64 
    def4:	f2 ff 25 ed 9c 00 00 	bnd jmp QWORD PTR [rip+0x9ced]        # 17be8 <code_1254@Base>
    defb:	0f 1f 44 00 00       	nop    DWORD PTR [rax+rax*1+0x0]

000000000000df00 <code_1217@plt>:
    df00:	f3 0f 1e fa          	endbr64 
    df04:	f2 ff 25 e5 9c 00 00 	bnd jmp QWORD PTR [rip+0x9ce5]        # 17bf0 <code_1217@Base>
    df0b:	0f 1f 44 00 00       	nop    DWORD PTR [rax+rax*1+0x0]

000000000000df10 <code_1446@plt>:
    df10:	f3 0f 1e fa          	endbr64 
    df14:	f2 ff 25 dd 9c 00 00 	bnd jmp QWORD PTR [rip+0x9cdd]        # 17bf8 <code_1446@Base>
    df1b:	0f 1f 44 00 00       	nop    DWORD PTR [rax+rax*1+0x0]

000000000000df20 <code_1409@plt>:
    df20:	f3 0f 1e fa          	endbr64 
    df24:	f2 ff 25 d5 9c 00 00 	bnd jmp QWORD PTR [rip+0x9cd5]        # 17c00 <code_1409@Base>
    df2b:	0f 1f 44 00 00       	nop    DWORD PTR [rax+rax*1+0x0]

000000000000df30 <code_1256@plt>:
    df30:	f3 0f 1e fa          	endbr64 
    df34:	f2 ff 25 cd 9c 00 00 	bnd jmp QWORD PTR [rip+0x9ccd]        # 17c08 <code_1256@Base>
    df3b:	0f 1f 44 00 00       	nop    DWORD PTR [rax+rax*1+0x0]

000000000000df40 <code_947@plt>:
    df40:	f3 0f 1e fa          	endbr64 
    df44:	f2 ff 25 c5 9c 00 00 	bnd jmp QWORD PTR [rip+0x9cc5]        # 17c10 <code_947@Base>
    df4b:	0f 1f 44 00 00       	nop    DWORD PTR [rax+rax*1+0x0]

000000000000df50 <code_1219@plt>:
    df50:	f3 0f 1e fa          	endbr64 
    df54:	f2 ff 25 bd 9c 00 00 	bnd jmp QWORD PTR [rip+0x9cbd]        # 17c18 <code_1219@Base>
    df5b:	0f 1f 44 00 00       	nop    DWORD PTR [rax+rax*1+0x0]

000000000000df60 <code_1407@plt>:
    df60:	f3 0f 1e fa          	endbr64 
    df64:	f2 ff 25 b5 9c 00 00 	bnd jmp QWORD PTR [rip+0x9cb5]        # 17c20 <code_1407@Base>
    df6b:	0f 1f 44 00 00       	nop    DWORD PTR [rax+rax*1+0x0]

000000000000df70 <code_1215@plt>:
    df70:	f3 0f 1e fa          	endbr64 
    df74:	f2 ff 25 ad 9c 00 00 	bnd jmp QWORD PTR [rip+0x9cad]        # 17c28 <code_1215@Base>
    df7b:	0f 1f 44 00 00       	nop    DWORD PTR [rax+rax*1+0x0]

000000000000df80 <code_1448@plt>:
    df80:	f3 0f 1e fa          	endbr64 
    df84:	f2 ff 25 a5 9c 00 00 	bnd jmp QWORD PTR [rip+0x9ca5]        # 17c30 <code_1448@Base>
    df8b:	0f 1f 44 00 00       	nop    DWORD PTR [rax+rax*1+0x0]

000000000000df90 <code_945@plt>:
    df90:	f3 0f 1e fa          	endbr64 
    df94:	f2 ff 25 9d 9c 00 00 	bnd jmp QWORD PTR [rip+0x9c9d]        # 17c38 <code_945@Base>
    df9b:	0f 1f 44 00 00       	nop    DWORD PTR [rax+rax*1+0x0]

000000000000dfa0 <code_908@plt>:
    dfa0:	f3 0f 1e fa          	endbr64 
    dfa4:	f2 ff 25 95 9c 00 00 	bnd jmp QWORD PTR [rip+0x9c95]        # 17c40 <code_908@Base>
    dfab:	0f 1f 44 00 00       	nop    DWORD PTR [rax+rax*1+0x0]

000000000000dfb0 <code_906@plt>:
    dfb0:	f3 0f 1e fa          	endbr64 
    dfb4:	f2 ff 25 8d 9c 00 00 	bnd jmp QWORD PTR [rip+0x9c8d]        # 17c48 <code_906@Base>
    dfbb:	0f 1f 44 00 00       	nop    DWORD PTR [rax+rax*1+0x0]

000000000000dfc0 <code_943@plt>:
    dfc0:	f3 0f 1e fa          	endbr64 
    dfc4:	f2 ff 25 85 9c 00 00 	bnd jmp QWORD PTR [rip+0x9c85]        # 17c50 <code_943@Base>
    dfcb:	0f 1f 44 00 00       	nop    DWORD PTR [rax+rax*1+0x0]

000000000000dfd0 <code_96@plt>:
    dfd0:	f3 0f 1e fa          	endbr64 
    dfd4:	f2 ff 25 7d 9c 00 00 	bnd jmp QWORD PTR [rip+0x9c7d]        # 17c58 <code_96@Base>
    dfdb:	0f 1f 44 00 00       	nop    DWORD PTR [rax+rax*1+0x0]

000000000000dfe0 <code_986@plt>:
    dfe0:	f3 0f 1e fa          	endbr64 
    dfe4:	f2 ff 25 75 9c 00 00 	bnd jmp QWORD PTR [rip+0x9c75]        # 17c60 <code_986@Base>
    dfeb:	0f 1f 44 00 00       	nop    DWORD PTR [rax+rax*1+0x0]

000000000000dff0 <code_1213@plt>:
    dff0:	f3 0f 1e fa          	endbr64 
    dff4:	f2 ff 25 6d 9c 00 00 	bnd jmp QWORD PTR [rip+0x9c6d]        # 17c68 <code_1213@Base>
    dffb:	0f 1f 44 00 00       	nop    DWORD PTR [rax+rax*1+0x0]

000000000000e000 <code_180@plt>:
    e000:	f3 0f 1e fa          	endbr64 
    e004:	f2 ff 25 65 9c 00 00 	bnd jmp QWORD PTR [rip+0x9c65]        # 17c70 <code_180@Base>
    e00b:	0f 1f 44 00 00       	nop    DWORD PTR [rax+rax*1+0x0]

000000000000e010 <code_1211@plt>:
    e010:	f3 0f 1e fa          	endbr64 
    e014:	f2 ff 25 5d 9c 00 00 	bnd jmp QWORD PTR [rip+0x9c5d]        # 17c78 <code_1211@Base>
    e01b:	0f 1f 44 00 00       	nop    DWORD PTR [rax+rax*1+0x0]

000000000000e020 <code_141@plt>:
    e020:	f3 0f 1e fa          	endbr64 
    e024:	f2 ff 25 55 9c 00 00 	bnd jmp QWORD PTR [rip+0x9c55]        # 17c80 <code_141@Base>
    e02b:	0f 1f 44 00 00       	nop    DWORD PTR [rax+rax*1+0x0]

000000000000e030 <code_591@plt>:
    e030:	f3 0f 1e fa          	endbr64 
    e034:	f2 ff 25 4d 9c 00 00 	bnd jmp QWORD PTR [rip+0x9c4d]        # 17c88 <code_591@Base>
    e03b:	0f 1f 44 00 00       	nop    DWORD PTR [rax+rax*1+0x0]

000000000000e040 <code_558@plt>:
    e040:	f3 0f 1e fa          	endbr64 
    e044:	f2 ff 25 45 9c 00 00 	bnd jmp QWORD PTR [rip+0x9c45]        # 17c90 <code_558@Base>
    e04b:	0f 1f 44 00 00       	nop    DWORD PTR [rax+rax*1+0x0]

000000000000e050 <code_108@plt>:
    e050:	f3 0f 1e fa          	endbr64 
    e054:	f2 ff 25 3d 9c 00 00 	bnd jmp QWORD PTR [rip+0x9c3d]        # 17c98 <code_108@Base>
    e05b:	0f 1f 44 00 00       	nop    DWORD PTR [rax+rax*1+0x0]

000000000000e060 <code_519@plt>:
    e060:	f3 0f 1e fa          	endbr64 
    e064:	f2 ff 25 35 9c 00 00 	bnd jmp QWORD PTR [rip+0x9c35]        # 17ca0 <code_519@Base>
    e06b:	0f 1f 44 00 00       	nop    DWORD PTR [rax+rax*1+0x0]

000000000000e070 <code_556@plt>:
    e070:	f3 0f 1e fa          	endbr64 
    e074:	f2 ff 25 2d 9c 00 00 	bnd jmp QWORD PTR [rip+0x9c2d]        # 17ca8 <code_556@Base>
    e07b:	0f 1f 44 00 00       	nop    DWORD PTR [rax+rax*1+0x0]

000000000000e080 <code_432@plt>:
    e080:	f3 0f 1e fa          	endbr64 
    e084:	f2 ff 25 25 9c 00 00 	bnd jmp QWORD PTR [rip+0x9c25]        # 17cb0 <code_432@Base>
    e08b:	0f 1f 44 00 00       	nop    DWORD PTR [rax+rax*1+0x0]

000000000000e090 <code_1186@plt>:
    e090:	f3 0f 1e fa          	endbr64 
    e094:	f2 ff 25 1d 9c 00 00 	bnd jmp QWORD PTR [rip+0x9c1d]        # 17cb8 <code_1186@Base>
    e09b:	0f 1f 44 00 00       	nop    DWORD PTR [rax+rax*1+0x0]

000000000000e0a0 <code_597@plt>:
    e0a0:	f3 0f 1e fa          	endbr64 
    e0a4:	f2 ff 25 15 9c 00 00 	bnd jmp QWORD PTR [rip+0x9c15]        # 17cc0 <code_597@Base>
    e0ab:	0f 1f 44 00 00       	nop    DWORD PTR [rax+rax*1+0x0]

000000000000e0b0 <code_147@plt>:
    e0b0:	f3 0f 1e fa          	endbr64 
    e0b4:	f2 ff 25 0d 9c 00 00 	bnd jmp QWORD PTR [rip+0x9c0d]        # 17cc8 <code_147@Base>
    e0bb:	0f 1f 44 00 00       	nop    DWORD PTR [rax+rax*1+0x0]

000000000000e0c0 <code_1149@plt>:
    e0c0:	f3 0f 1e fa          	endbr64 
    e0c4:	f2 ff 25 05 9c 00 00 	bnd jmp QWORD PTR [rip+0x9c05]        # 17cd0 <code_1149@Base>
    e0cb:	0f 1f 44 00 00       	nop    DWORD PTR [rax+rax*1+0x0]

000000000000e0d0 <code_430@plt>:
    e0d0:	f3 0f 1e fa          	endbr64 
    e0d4:	f2 ff 25 fd 9b 00 00 	bnd jmp QWORD PTR [rip+0x9bfd]        # 17cd8 <code_430@Base>
    e0db:	0f 1f 44 00 00       	nop    DWORD PTR [rax+rax*1+0x0]

000000000000e0e0 <code_92@plt>:
    e0e0:	f3 0f 1e fa          	endbr64 
    e0e4:	f2 ff 25 f5 9b 00 00 	bnd jmp QWORD PTR [rip+0x9bf5]        # 17ce0 <code_92@Base>
    e0eb:	0f 1f 44 00 00       	nop    DWORD PTR [rax+rax*1+0x0]

000000000000e0f0 <code_1147@plt>:
    e0f0:	f3 0f 1e fa          	endbr64 
    e0f4:	f2 ff 25 ed 9b 00 00 	bnd jmp QWORD PTR [rip+0x9bed]        # 17ce8 <code_1147@Base>
    e0fb:	0f 1f 44 00 00       	nop    DWORD PTR [rax+rax*1+0x0]

000000000000e100 <code_182@plt>:
    e100:	f3 0f 1e fa          	endbr64 
    e104:	f2 ff 25 e5 9b 00 00 	bnd jmp QWORD PTR [rip+0x9be5]        # 17cf0 <code_182@Base>
    e10b:	0f 1f 44 00 00       	nop    DWORD PTR [rax+rax*1+0x0]

000000000000e110 <code_145@plt>:
    e110:	f3 0f 1e fa          	endbr64 
    e114:	f2 ff 25 dd 9b 00 00 	bnd jmp QWORD PTR [rip+0x9bdd]        # 17cf8 <code_145@Base>
    e11b:	0f 1f 44 00 00       	nop    DWORD PTR [rax+rax*1+0x0]

000000000000e120 <code_631@plt>:
    e120:	f3 0f 1e fa          	endbr64 
    e124:	f2 ff 25 d5 9b 00 00 	bnd jmp QWORD PTR [rip+0x9bd5]        # 17d00 <code_631@Base>
    e12b:	0f 1f 44 00 00       	nop    DWORD PTR [rax+rax*1+0x0]

000000000000e130 <code_1188@plt>:
    e130:	f3 0f 1e fa          	endbr64 
    e134:	f2 ff 25 cd 9b 00 00 	bnd jmp QWORD PTR [rip+0x9bcd]        # 17d08 <code_1188@Base>
    e13b:	0f 1f 44 00 00       	nop    DWORD PTR [rax+rax*1+0x0]

000000000000e140 <code_149@plt>:
    e140:	f3 0f 1e fa          	endbr64 
    e144:	f2 ff 25 c5 9b 00 00 	bnd jmp QWORD PTR [rip+0x9bc5]        # 17d10 <code_149@Base>
    e14b:	0f 1f 44 00 00       	nop    DWORD PTR [rax+rax*1+0x0]

000000000000e150 <code_186@plt>:
    e150:	f3 0f 1e fa          	endbr64 
    e154:	f2 ff 25 bd 9b 00 00 	bnd jmp QWORD PTR [rip+0x9bbd]        # 17d18 <code_186@Base>
    e15b:	0f 1f 44 00 00       	nop    DWORD PTR [rax+rax*1+0x0]

000000000000e160 <code_1284@plt>:
    e160:	f3 0f 1e fa          	endbr64 
    e164:	f2 ff 25 b5 9b 00 00 	bnd jmp QWORD PTR [rip+0x9bb5]        # 17d20 <code_1284@Base>
    e16b:	0f 1f 44 00 00       	nop    DWORD PTR [rax+rax*1+0x0]

000000000000e170 <code_684@plt>:
    e170:	f3 0f 1e fa          	endbr64 
    e174:	f2 ff 25 ad 9b 00 00 	bnd jmp QWORD PTR [rip+0x9bad]        # 17d28 <code_684@Base>
    e17b:	0f 1f 44 00 00       	nop    DWORD PTR [rax+rax*1+0x0]

000000000000e180 <code_238@plt>:
    e180:	f3 0f 1e fa          	endbr64 
    e184:	f2 ff 25 a5 9b 00 00 	bnd jmp QWORD PTR [rip+0x9ba5]        # 17d30 <code_238@Base>
    e18b:	0f 1f 44 00 00       	nop    DWORD PTR [rax+rax*1+0x0]

000000000000e190 <code_680@plt>:
    e190:	f3 0f 1e fa          	endbr64 
    e194:	f2 ff 25 9d 9b 00 00 	bnd jmp QWORD PTR [rip+0x9b9d]        # 17d38 <code_680@Base>
    e19b:	0f 1f 44 00 00       	nop    DWORD PTR [rax+rax*1+0x0]

000000000000e1a0 <code_511@plt>:
    e1a0:	f3 0f 1e fa          	endbr64 
    e1a4:	f2 ff 25 95 9b 00 00 	bnd jmp QWORD PTR [rip+0x9b95]        # 17d40 <code_511@Base>
    e1ab:	0f 1f 44 00 00       	nop    DWORD PTR [rax+rax*1+0x0]

000000000000e1b0 <code_273@plt>:
    e1b0:	f3 0f 1e fa          	endbr64 
    e1b4:	f2 ff 25 8d 9b 00 00 	bnd jmp QWORD PTR [rip+0x9b8d]        # 17d48 <code_273@Base>
    e1bb:	0f 1f 44 00 00       	nop    DWORD PTR [rax+rax*1+0x0]

000000000000e1c0 <code_234@plt>:
    e1c0:	f3 0f 1e fa          	endbr64 
    e1c4:	f2 ff 25 85 9b 00 00 	bnd jmp QWORD PTR [rip+0x9b85]        # 17d50 <code_234@Base>
    e1cb:	0f 1f 44 00 00       	nop    DWORD PTR [rax+rax*1+0x0]

000000000000e1d0 <code_102@plt>:
    e1d0:	f3 0f 1e fa          	endbr64 
    e1d4:	f2 ff 25 7d 9b 00 00 	bnd jmp QWORD PTR [rip+0x9b7d]        # 17d58 <code_102@Base>
    e1db:	0f 1f 44 00 00       	nop    DWORD PTR [rax+rax*1+0x0]

000000000000e1e0 <code_271@plt>:
    e1e0:	f3 0f 1e fa          	endbr64 
    e1e4:	f2 ff 25 75 9b 00 00 	bnd jmp QWORD PTR [rip+0x9b75]        # 17d60 <code_271@Base>
    e1eb:	0f 1f 44 00 00       	nop    DWORD PTR [rax+rax*1+0x0]

000000000000e1f0 <code_550@plt>:
    e1f0:	f3 0f 1e fa          	endbr64 
    e1f4:	f2 ff 25 6d 9b 00 00 	bnd jmp QWORD PTR [rip+0x9b6d]        # 17d68 <code_550@Base>
    e1fb:	0f 1f 44 00 00       	nop    DWORD PTR [rax+rax*1+0x0]

000000000000e200 <code_513@plt>:
    e200:	f3 0f 1e fa          	endbr64 
    e204:	f2 ff 25 65 9b 00 00 	bnd jmp QWORD PTR [rip+0x9b65]        # 17d70 <code_513@Base>
    e20b:	0f 1f 44 00 00       	nop    DWORD PTR [rax+rax*1+0x0]

000000000000e210 <code_799@plt>:
    e210:	f3 0f 1e fa          	endbr64 
    e214:	f2 ff 25 5d 9b 00 00 	bnd jmp QWORD PTR [rip+0x9b5d]        # 17d78 <code_799@Base>
    e21b:	0f 1f 44 00 00       	nop    DWORD PTR [rax+rax*1+0x0]

000000000000e220 <code_711@plt>:
    e220:	f3 0f 1e fa          	endbr64 
    e224:	f2 ff 25 55 9b 00 00 	bnd jmp QWORD PTR [rip+0x9b55]        # 17d80 <code_711@Base>
    e22b:	0f 1f 44 00 00       	nop    DWORD PTR [rax+rax*1+0x0]

000000000000e230 <code_1019@plt>:
    e230:	f3 0f 1e fa          	endbr64 
    e234:	f2 ff 25 4d 9b 00 00 	bnd jmp QWORD PTR [rip+0x9b4d]        # 17d88 <code_1019@Base>
    e23b:	0f 1f 44 00 00       	nop    DWORD PTR [rax+rax*1+0x0]

000000000000e240 <code_1421@plt>:
    e240:	f3 0f 1e fa          	endbr64 
    e244:	f2 ff 25 45 9b 00 00 	bnd jmp QWORD PTR [rip+0x9b45]        # 17d90 <code_1421@Base>
    e24b:	0f 1f 44 00 00       	nop    DWORD PTR [rax+rax*1+0x0]

000000000000e250 <code_28@plt>:
    e250:	f3 0f 1e fa          	endbr64 
    e254:	f2 ff 25 3d 9b 00 00 	bnd jmp QWORD PTR [rip+0x9b3d]        # 17d98 <code_28@Base>
    e25b:	0f 1f 44 00 00       	nop    DWORD PTR [rax+rax*1+0x0]

000000000000e260 <code_26@plt>:
    e260:	f3 0f 1e fa          	endbr64 
    e264:	f2 ff 25 35 9b 00 00 	bnd jmp QWORD PTR [rip+0x9b35]        # 17da0 <code_26@Base>
    e26b:	0f 1f 44 00 00       	nop    DWORD PTR [rax+rax*1+0x0]

000000000000e270 <code_782@plt>:
    e270:	f3 0f 1e fa          	endbr64 
    e274:	f2 ff 25 2d 9b 00 00 	bnd jmp QWORD PTR [rip+0x9b2d]        # 17da8 <code_782@Base>
    e27b:	0f 1f 44 00 00       	nop    DWORD PTR [rax+rax*1+0x0]

000000000000e280 <code_1184@plt>:
    e280:	f3 0f 1e fa          	endbr64 
    e284:	f2 ff 25 25 9b 00 00 	bnd jmp QWORD PTR [rip+0x9b25]        # 17db0 <code_1184@Base>
    e28b:	0f 1f 44 00 00       	nop    DWORD PTR [rax+rax*1+0x0]

000000000000e290 <code_1015@plt>:
    e290:	f3 0f 1e fa          	endbr64 
    e294:	f2 ff 25 1d 9b 00 00 	bnd jmp QWORD PTR [rip+0x9b1d]        # 17db8 <code_1015@Base>
    e29b:	0f 1f 44 00 00       	nop    DWORD PTR [rax+rax*1+0x0]

000000000000e2a0 <code_1011@plt>:
    e2a0:	f3 0f 1e fa          	endbr64 
    e2a4:	f2 ff 25 15 9b 00 00 	bnd jmp QWORD PTR [rip+0x9b15]        # 17dc0 <code_1011@Base>
    e2ab:	0f 1f 44 00 00       	nop    DWORD PTR [rax+rax*1+0x0]

000000000000e2b0 <code_1013@plt>:
    e2b0:	f3 0f 1e fa          	endbr64 
    e2b4:	f2 ff 25 0d 9b 00 00 	bnd jmp QWORD PTR [rip+0x9b0d]        # 17dc8 <code_1013@Base>
    e2bb:	0f 1f 44 00 00       	nop    DWORD PTR [rax+rax*1+0x0]

000000000000e2c0 <code_391@plt>:
    e2c0:	f3 0f 1e fa          	endbr64 
    e2c4:	f2 ff 25 05 9b 00 00 	bnd jmp QWORD PTR [rip+0x9b05]        # 17dd0 <code_391@Base>
    e2cb:	0f 1f 44 00 00       	nop    DWORD PTR [rax+rax*1+0x0]

000000000000e2d0 <code_317@plt>:
    e2d0:	f3 0f 1e fa          	endbr64 
    e2d4:	f2 ff 25 fd 9a 00 00 	bnd jmp QWORD PTR [rip+0x9afd]        # 17dd8 <code_317@Base>
    e2db:	0f 1f 44 00 00       	nop    DWORD PTR [rax+rax*1+0x0]

000000000000e2e0 <code_315@plt>:
    e2e0:	f3 0f 1e fa          	endbr64 
    e2e4:	f2 ff 25 f5 9a 00 00 	bnd jmp QWORD PTR [rip+0x9af5]        # 17de0 <code_315@Base>
    e2eb:	0f 1f 44 00 00       	nop    DWORD PTR [rax+rax*1+0x0]

000000000000e2f0 <code_230@plt>:
    e2f0:	f3 0f 1e fa          	endbr64 
    e2f4:	f2 ff 25 ed 9a 00 00 	bnd jmp QWORD PTR [rip+0x9aed]        # 17de8 <code_230@Base>
    e2fb:	0f 1f 44 00 00       	nop    DWORD PTR [rax+rax*1+0x0]

000000000000e300 <code_866@plt>:
    e300:	f3 0f 1e fa          	endbr64 
    e304:	f2 ff 25 e5 9a 00 00 	bnd jmp QWORD PTR [rip+0x9ae5]        # 17df0 <code_866@Base>
    e30b:	0f 1f 44 00 00       	nop    DWORD PTR [rax+rax*1+0x0]

000000000000e310 <code_1332@plt>:
    e310:	f3 0f 1e fa          	endbr64 
    e314:	f2 ff 25 dd 9a 00 00 	bnd jmp QWORD PTR [rip+0x9add]        # 17df8 <code_1332@Base>
    e31b:	0f 1f 44 00 00       	nop    DWORD PTR [rax+rax*1+0x0]

000000000000e320 <code_834@plt>:
    e320:	f3 0f 1e fa          	endbr64 
    e324:	f2 ff 25 d5 9a 00 00 	bnd jmp QWORD PTR [rip+0x9ad5]        # 17e00 <code_834@Base>
    e32b:	0f 1f 44 00 00       	nop    DWORD PTR [rax+rax*1+0x0]

000000000000e330 <code_20@plt>:
    e330:	f3 0f 1e fa          	endbr64 
    e334:	f2 ff 25 cd 9a 00 00 	bnd jmp QWORD PTR [rip+0x9acd]        # 17e08 <code_20@Base>
    e33b:	0f 1f 44 00 00       	nop    DWORD PTR [rax+rax*1+0x0]

000000000000e340 <code_22@plt>:
    e340:	f3 0f 1e fa          	endbr64 
    e344:	f2 ff 25 c5 9a 00 00 	bnd jmp QWORD PTR [rip+0x9ac5]        # 17e10 <code_22@Base>
    e34b:	0f 1f 44 00 00       	nop    DWORD PTR [rax+rax*1+0x0]

000000000000e350 <code_1082@plt>:
    e350:	f3 0f 1e fa          	endbr64 
    e354:	f2 ff 25 bd 9a 00 00 	bnd jmp QWORD PTR [rip+0x9abd]        # 17e18 <code_1082@Base>
    e35b:	0f 1f 44 00 00       	nop    DWORD PTR [rax+rax*1+0x0]

000000000000e360 <code_871@plt>:
    e360:	f3 0f 1e fa          	endbr64 
    e364:	f2 ff 25 b5 9a 00 00 	bnd jmp QWORD PTR [rip+0x9ab5]        # 17e20 <code_871@Base>
    e36b:	0f 1f 44 00 00       	nop    DWORD PTR [rax+rax*1+0x0]

000000000000e370 <code_873@plt>:
    e370:	f3 0f 1e fa          	endbr64 
    e374:	f2 ff 25 ad 9a 00 00 	bnd jmp QWORD PTR [rip+0x9aad]        # 17e28 <code_873@Base>
    e37b:	0f 1f 44 00 00       	nop    DWORD PTR [rax+rax*1+0x0]

000000000000e380 <code_1260@plt>:
    e380:	f3 0f 1e fa          	endbr64 
    e384:	f2 ff 25 a5 9a 00 00 	bnd jmp QWORD PTR [rip+0x9aa5]        # 17e30 <code_1260@Base>
    e38b:	0f 1f 44 00 00       	nop    DWORD PTR [rax+rax*1+0x0]

000000000000e390 <code_1379@plt>:
    e390:	f3 0f 1e fa          	endbr64 
    e394:	f2 ff 25 9d 9a 00 00 	bnd jmp QWORD PTR [rip+0x9a9d]        # 17e38 <code_1379@Base>
    e39b:	0f 1f 44 00 00       	nop    DWORD PTR [rax+rax*1+0x0]

000000000000e3a0 <code_1338@plt>:
    e3a0:	f3 0f 1e fa          	endbr64 
    e3a4:	f2 ff 25 95 9a 00 00 	bnd jmp QWORD PTR [rip+0x9a95]        # 17e40 <code_1338@Base>
    e3ab:	0f 1f 44 00 00       	nop    DWORD PTR [rax+rax*1+0x0]

000000000000e3b0 <code_1221@plt>:
    e3b0:	f3 0f 1e fa          	endbr64 
    e3b4:	f2 ff 25 8d 9a 00 00 	bnd jmp QWORD PTR [rip+0x9a8d]        # 17e48 <code_1221@Base>
    e3bb:	0f 1f 44 00 00       	nop    DWORD PTR [rax+rax*1+0x0]

000000000000e3c0 <code_429@plt>:
    e3c0:	f3 0f 1e fa          	endbr64 
    e3c4:	f2 ff 25 85 9a 00 00 	bnd jmp QWORD PTR [rip+0x9a85]        # 17e50 <code_429@Base>
    e3cb:	0f 1f 44 00 00       	nop    DWORD PTR [rax+rax*1+0x0]

000000000000e3d0 <code_466@plt>:
    e3d0:	f3 0f 1e fa          	endbr64 
    e3d4:	f2 ff 25 7d 9a 00 00 	bnd jmp QWORD PTR [rip+0x9a7d]        # 17e58 <code_466@Base>
    e3db:	0f 1f 44 00 00       	nop    DWORD PTR [rax+rax*1+0x0]

000000000000e3e0 <code_1084@plt>:
    e3e0:	f3 0f 1e fa          	endbr64 
    e3e4:	f2 ff 25 75 9a 00 00 	bnd jmp QWORD PTR [rip+0x9a75]        # 17e60 <code_1084@Base>
    e3eb:	0f 1f 44 00 00       	nop    DWORD PTR [rax+rax*1+0x0]

000000000000e3f0 <code_1373@plt>:
    e3f0:	f3 0f 1e fa          	endbr64 
    e3f4:	f2 ff 25 6d 9a 00 00 	bnd jmp QWORD PTR [rip+0x9a6d]        # 17e68 <code_1373@Base>
    e3fb:	0f 1f 44 00 00       	nop    DWORD PTR [rax+rax*1+0x0]

000000000000e400 <code_427@plt>:
    e400:	f3 0f 1e fa          	endbr64 
    e404:	f2 ff 25 65 9a 00 00 	bnd jmp QWORD PTR [rip+0x9a65]        # 17e70 <code_427@Base>
    e40b:	0f 1f 44 00 00       	nop    DWORD PTR [rax+rax*1+0x0]

000000000000e410 <code_313@plt>:
    e410:	f3 0f 1e fa          	endbr64 
    e414:	f2 ff 25 5d 9a 00 00 	bnd jmp QWORD PTR [rip+0x9a5d]        # 17e78 <code_313@Base>
    e41b:	0f 1f 44 00 00       	nop    DWORD PTR [rax+rax*1+0x0]

000000000000e420 <code_311@plt>:
    e420:	f3 0f 1e fa          	endbr64 
    e424:	f2 ff 25 55 9a 00 00 	bnd jmp QWORD PTR [rip+0x9a55]        # 17e80 <code_311@Base>
    e42b:	0f 1f 44 00 00       	nop    DWORD PTR [rax+rax*1+0x0]

000000000000e430 <code_1377@plt>:
    e430:	f3 0f 1e fa          	endbr64 
    e434:	f2 ff 25 4d 9a 00 00 	bnd jmp QWORD PTR [rip+0x9a4d]        # 17e88 <code_1377@Base>
    e43b:	0f 1f 44 00 00       	nop    DWORD PTR [rax+rax*1+0x0]

000000000000e440 <code_1225@plt>:
    e440:	f3 0f 1e fa          	endbr64 
    e444:	f2 ff 25 45 9a 00 00 	bnd jmp QWORD PTR [rip+0x9a45]        # 17e90 <code_1225@Base>
    e44b:	0f 1f 44 00 00       	nop    DWORD PTR [rax+rax*1+0x0]

000000000000e450 <code_921@plt>:
    e450:	f3 0f 1e fa          	endbr64 
    e454:	f2 ff 25 3d 9a 00 00 	bnd jmp QWORD PTR [rip+0x9a3d]        # 17e98 <code_921@Base>
    e45b:	0f 1f 44 00 00       	nop    DWORD PTR [rax+rax*1+0x0]

000000000000e460 <code_1418@plt>:
    e460:	f3 0f 1e fa          	endbr64 
    e464:	f2 ff 25 35 9a 00 00 	bnd jmp QWORD PTR [rip+0x9a35]        # 17ea0 <code_1418@Base>
    e46b:	0f 1f 44 00 00       	nop    DWORD PTR [rax+rax*1+0x0]

000000000000e470 <code_1451@plt>:
    e470:	f3 0f 1e fa          	endbr64 
    e474:	f2 ff 25 2d 9a 00 00 	bnd jmp QWORD PTR [rip+0x9a2d]        # 17ea8 <code_1451@Base>
    e47b:	0f 1f 44 00 00       	nop    DWORD PTR [rax+rax*1+0x0]

000000000000e480 <code_1049@plt>:
    e480:	f3 0f 1e fa          	endbr64 
    e484:	f2 ff 25 25 9a 00 00 	bnd jmp QWORD PTR [rip+0x9a25]        # 17eb0 <code_1049@Base>
    e48b:	0f 1f 44 00 00       	nop    DWORD PTR [rax+rax*1+0x0]

000000000000e490 <code_1414@plt>:
    e490:	f3 0f 1e fa          	endbr64 
    e494:	f2 ff 25 1d 9a 00 00 	bnd jmp QWORD PTR [rip+0x9a1d]        # 17eb8 <code_1414@Base>
    e49b:	0f 1f 44 00 00       	nop    DWORD PTR [rax+rax*1+0x0]

000000000000e4a0 <code_953@plt>:
    e4a0:	f3 0f 1e fa          	endbr64 
    e4a4:	f2 ff 25 15 9a 00 00 	bnd jmp QWORD PTR [rip+0x9a15]        # 17ec0 <code_953@Base>
    e4ab:	0f 1f 44 00 00       	nop    DWORD PTR [rax+rax*1+0x0]

000000000000e4b0 <code_1160@plt>:
    e4b0:	f3 0f 1e fa          	endbr64 
    e4b4:	f2 ff 25 0d 9a 00 00 	bnd jmp QWORD PTR [rip+0x9a0d]        # 17ec8 <code_1160@Base>
    e4bb:	0f 1f 44 00 00       	nop    DWORD PTR [rax+rax*1+0x0]

000000000000e4c0 <code_990@plt>:
    e4c0:	f3 0f 1e fa          	endbr64 
    e4c4:	f2 ff 25 05 9a 00 00 	bnd jmp QWORD PTR [rip+0x9a05]        # 17ed0 <code_990@Base>
    e4cb:	0f 1f 44 00 00       	nop    DWORD PTR [rax+rax*1+0x0]

000000000000e4d0 <code_157@plt>:
    e4d0:	f3 0f 1e fa          	endbr64 
    e4d4:	f2 ff 25 fd 99 00 00 	bnd jmp QWORD PTR [rip+0x99fd]        # 17ed8 <code_157@Base>
    e4db:	0f 1f 44 00 00       	nop    DWORD PTR [rax+rax*1+0x0]

000000000000e4e0 <code_568@plt>:
    e4e0:	f3 0f 1e fa          	endbr64 
    e4e4:	f2 ff 25 f5 99 00 00 	bnd jmp QWORD PTR [rip+0x99f5]        # 17ee0 <code_568@Base>
    e4eb:	0f 1f 44 00 00       	nop    DWORD PTR [rax+rax*1+0x0]

000000000000e4f0 <code_1457@plt>:
    e4f0:	f3 0f 1e fa          	endbr64 
    e4f4:	f2 ff 25 ed 99 00 00 	bnd jmp QWORD PTR [rip+0x99ed]        # 17ee8 <code_1457@Base>
    e4fb:	0f 1f 44 00 00       	nop    DWORD PTR [rax+rax*1+0x0]

000000000000e500 <code_1121@plt>:
    e500:	f3 0f 1e fa          	endbr64 
    e504:	f2 ff 25 e5 99 00 00 	bnd jmp QWORD PTR [rip+0x99e5]        # 17ef0 <code_1121@Base>
    e50b:	0f 1f 44 00 00       	nop    DWORD PTR [rax+rax*1+0x0]

000000000000e510 <code_155@plt>:
    e510:	f3 0f 1e fa          	endbr64 
    e514:	f2 ff 25 dd 99 00 00 	bnd jmp QWORD PTR [rip+0x99dd]        # 17ef8 <code_155@Base>
    e51b:	0f 1f 44 00 00       	nop    DWORD PTR [rax+rax*1+0x0]

000000000000e520 <code_566@plt>:
    e520:	f3 0f 1e fa          	endbr64 
    e524:	f2 ff 25 d5 99 00 00 	bnd jmp QWORD PTR [rip+0x99d5]        # 17f00 <code_566@Base>
    e52b:	0f 1f 44 00 00       	nop    DWORD PTR [rax+rax*1+0x0]

000000000000e530 <code_67@plt>:
    e530:	f3 0f 1e fa          	endbr64 
    e534:	f2 ff 25 cd 99 00 00 	bnd jmp QWORD PTR [rip+0x99cd]        # 17f08 <code_67@Base>
    e53b:	0f 1f 44 00 00       	nop    DWORD PTR [rax+rax*1+0x0]

000000000000e540 <code_153@plt>:
    e540:	f3 0f 1e fa          	endbr64 
    e544:	f2 ff 25 c5 99 00 00 	bnd jmp QWORD PTR [rip+0x99c5]        # 17f10 <code_153@Base>
    e54b:	0f 1f 44 00 00       	nop    DWORD PTR [rax+rax*1+0x0]

000000000000e550 <code_114@plt>:
    e550:	f3 0f 1e fa          	endbr64 
    e554:	f2 ff 25 bd 99 00 00 	bnd jmp QWORD PTR [rip+0x99bd]        # 17f18 <code_114@Base>
    e55b:	0f 1f 44 00 00       	nop    DWORD PTR [rax+rax*1+0x0]

000000000000e560 <code_529@plt>:
    e560:	f3 0f 1e fa          	endbr64 
    e564:	f2 ff 25 b5 99 00 00 	bnd jmp QWORD PTR [rip+0x99b5]        # 17f20 <code_529@Base>
    e56b:	0f 1f 44 00 00       	nop    DWORD PTR [rax+rax*1+0x0]

000000000000e570 <code_527@plt>:
    e570:	f3 0f 1e fa          	endbr64 
    e574:	f2 ff 25 ad 99 00 00 	bnd jmp QWORD PTR [rip+0x99ad]        # 17f28 <code_527@Base>
    e57b:	0f 1f 44 00 00       	nop    DWORD PTR [rax+rax*1+0x0]

000000000000e580 <code_112@plt>:
    e580:	f3 0f 1e fa          	endbr64 
    e584:	f2 ff 25 a5 99 00 00 	bnd jmp QWORD PTR [rip+0x99a5]        # 17f30 <code_112@Base>
    e58b:	0f 1f 44 00 00       	nop    DWORD PTR [rax+rax*1+0x0]

000000000000e590 <code_562@plt>:
    e590:	f3 0f 1e fa          	endbr64 
    e594:	f2 ff 25 9d 99 00 00 	bnd jmp QWORD PTR [rip+0x999d]        # 17f38 <code_562@Base>
    e59b:	0f 1f 44 00 00       	nop    DWORD PTR [rax+rax*1+0x0]

000000000000e5a0 <code_460@plt>:
    e5a0:	f3 0f 1e fa          	endbr64 
    e5a4:	f2 ff 25 95 99 00 00 	bnd jmp QWORD PTR [rip+0x9995]        # 17f40 <code_460@Base>
    e5ab:	0f 1f 44 00 00       	nop    DWORD PTR [rax+rax*1+0x0]

000000000000e5b0 <code_61@plt>:
    e5b0:	f3 0f 1e fa          	endbr64 
    e5b4:	f2 ff 25 8d 99 00 00 	bnd jmp QWORD PTR [rip+0x998d]        # 17f48 <code_61@Base>
    e5bb:	0f 1f 44 00 00       	nop    DWORD PTR [rax+rax*1+0x0]

000000000000e5c0 <code_421@plt>:
    e5c0:	f3 0f 1e fa          	endbr64 
    e5c4:	f2 ff 25 85 99 00 00 	bnd jmp QWORD PTR [rip+0x9985]        # 17f50 <code_421@Base>
    e5cb:	0f 1f 44 00 00       	nop    DWORD PTR [rax+rax*1+0x0]

000000000000e5d0 <code_1175@plt>:
    e5d0:	f3 0f 1e fa          	endbr64 
    e5d4:	f2 ff 25 7d 99 00 00 	bnd jmp QWORD PTR [rip+0x997d]        # 17f58 <code_1175@Base>
    e5db:	0f 1f 44 00 00       	nop    DWORD PTR [rax+rax*1+0x0]

000000000000e5e0 <code_639@plt>:
    e5e0:	f3 0f 1e fa          	endbr64 
    e5e4:	f2 ff 25 75 99 00 00 	bnd jmp QWORD PTR [rip+0x9975]        # 17f60 <code_639@Base>
    e5eb:	0f 1f 44 00 00       	nop    DWORD PTR [rax+rax*1+0x0]

000000000000e5f0 <code_676@plt>:
    e5f0:	f3 0f 1e fa          	endbr64 
    e5f4:	f2 ff 25 6d 99 00 00 	bnd jmp QWORD PTR [rip+0x996d]        # 17f68 <code_676@Base>
    e5fb:	0f 1f 44 00 00       	nop    DWORD PTR [rax+rax*1+0x0]

000000000000e600 <code_159@plt>:
    e600:	f3 0f 1e fa          	endbr64 
    e604:	f2 ff 25 65 99 00 00 	bnd jmp QWORD PTR [rip+0x9965]        # 17f70 <code_159@Base>
    e60b:	0f 1f 44 00 00       	nop    DWORD PTR [rax+rax*1+0x0]

000000000000e610 <code_620@plt>:
    e610:	f3 0f 1e fa          	endbr64 
    e614:	f2 ff 25 5d 99 00 00 	bnd jmp QWORD PTR [rip+0x995d]        # 17f78 <code_620@Base>
    e61b:	0f 1f 44 00 00       	nop    DWORD PTR [rax+rax*1+0x0]

000000000000e620 <code_637@plt>:
    e620:	f3 0f 1e fa          	endbr64 
    e624:	f2 ff 25 55 99 00 00 	bnd jmp QWORD PTR [rip+0x9955]        # 17f80 <code_637@Base>
    e62b:	0f 1f 44 00 00       	nop    DWORD PTR [rax+rax*1+0x0]

000000000000e630 <code_674@plt>:
    e630:	f3 0f 1e fa          	endbr64 
    e634:	f2 ff 25 4d 99 00 00 	bnd jmp QWORD PTR [rip+0x994d]        # 17f88 <code_674@Base>
    e63b:	0f 1f 44 00 00       	nop    DWORD PTR [rax+rax*1+0x0]

000000000000e640 <code_635@plt>:
    e640:	f3 0f 1e fa          	endbr64 
    e644:	f2 ff 25 45 99 00 00 	bnd jmp QWORD PTR [rip+0x9945]        # 17f90 <code_635@Base>
    e64b:	0f 1f 44 00 00       	nop    DWORD PTR [rax+rax*1+0x0]

000000000000e650 <code_624@plt>:
    e650:	f3 0f 1e fa          	endbr64 
    e654:	f2 ff 25 3d 99 00 00 	bnd jmp QWORD PTR [rip+0x993d]        # 17f98 <code_624@Base>
    e65b:	0f 1f 44 00 00       	nop    DWORD PTR [rax+rax*1+0x0]

000000000000e660 <code_1313@plt>:
    e660:	f3 0f 1e fa          	endbr64 
    e664:	f2 ff 25 35 99 00 00 	bnd jmp QWORD PTR [rip+0x9935]        # 17fa0 <code_1313@Base>
    e66b:	0f 1f 44 00 00       	nop    DWORD PTR [rax+rax*1+0x0]

000000000000e670 <code_1179@plt>:
    e670:	f3 0f 1e fa          	endbr64 
    e674:	f2 ff 25 2d 99 00 00 	bnd jmp QWORD PTR [rip+0x992d]        # 17fa8 <code_1179@Base>
    e67b:	0f 1f 44 00 00       	nop    DWORD PTR [rax+rax*1+0x0]

000000000000e680 <code_261@plt>:
    e680:	f3 0f 1e fa          	endbr64 
    e684:	f2 ff 25 25 99 00 00 	bnd jmp QWORD PTR [rip+0x9925]        # 17fb0 <code_261@Base>
    e68b:	0f 1f 44 00 00       	nop    DWORD PTR [rax+rax*1+0x0]

000000000000e690 <code_226@plt>:
    e690:	f3 0f 1e fa          	endbr64 
    e694:	f2 ff 25 1d 99 00 00 	bnd jmp QWORD PTR [rip+0x991d]        # 17fb8 <code_226@Base>
    e69b:	0f 1f 44 00 00       	nop    DWORD PTR [rax+rax*1+0x0]

000000000000e6a0 <printf@plt>:
    e6a0:	f3 0f 1e fa          	endbr64 
    e6a4:	f2 ff 25 15 99 00 00 	bnd jmp QWORD PTR [rip+0x9915]        # 17fc0 <printf@GLIBC_2.2.5>
    e6ab:	0f 1f 44 00 00       	nop    DWORD PTR [rax+rax*1+0x0]

000000000000e6b0 <code_224@plt>:
    e6b0:	f3 0f 1e fa          	endbr64 
    e6b4:	f2 ff 25 0d 99 00 00 	bnd jmp QWORD PTR [rip+0x990d]        # 17fc8 <code_224@Base>
    e6bb:	0f 1f 44 00 00       	nop    DWORD PTR [rax+rax*1+0x0]

000000000000e6c0 <code_1258@plt>:
    e6c0:	f3 0f 1e fa          	endbr64 
    e6c4:	f2 ff 25 05 99 00 00 	bnd jmp QWORD PTR [rip+0x9905]        # 17fd0 <code_1258@Base>
    e6cb:	0f 1f 44 00 00       	nop    DWORD PTR [rax+rax*1+0x0]

000000000000e6d0 <code_758@plt>:
    e6d0:	f3 0f 1e fa          	endbr64 
    e6d4:	f2 ff 25 fd 98 00 00 	bnd jmp QWORD PTR [rip+0x98fd]        # 17fd8 <code_758@Base>
    e6db:	0f 1f 44 00 00       	nop    DWORD PTR [rax+rax*1+0x0]

000000000000e6e0 <code_720@plt>:
    e6e0:	f3 0f 1e fa          	endbr64 
    e6e4:	f2 ff 25 f5 98 00 00 	bnd jmp QWORD PTR [rip+0x98f5]        # 17fe0 <code_720@Base>
    e6eb:	0f 1f 44 00 00       	nop    DWORD PTR [rax+rax*1+0x0]

000000000000e6f0 <code_1026@plt>:
    e6f0:	f3 0f 1e fa          	endbr64 
    e6f4:	f2 ff 25 ed 98 00 00 	bnd jmp QWORD PTR [rip+0x98ed]        # 17fe8 <code_1026@Base>
    e6fb:	0f 1f 44 00 00       	nop    DWORD PTR [rax+rax*1+0x0]

000000000000e700 <code_523@plt>:
    e700:	f3 0f 1e fa          	endbr64 
    e704:	f2 ff 25 e5 98 00 00 	bnd jmp QWORD PTR [rip+0x98e5]        # 17ff0 <code_523@Base>
    e70b:	0f 1f 44 00 00       	nop    DWORD PTR [rax+rax*1+0x0]

000000000000e710 <code_1067@plt>:
    e710:	f3 0f 1e fa          	endbr64 
    e714:	f2 ff 25 dd 98 00 00 	bnd jmp QWORD PTR [rip+0x98dd]        # 17ff8 <code_1067@Base>
    e71b:	0f 1f 44 00 00       	nop    DWORD PTR [rax+rax*1+0x0]

000000000000e720 <code_756@plt>:
    e720:	f3 0f 1e fa          	endbr64 
    e724:	f2 ff 25 d5 98 00 00 	bnd jmp QWORD PTR [rip+0x98d5]        # 18000 <code_756@Base>
    e72b:	0f 1f 44 00 00       	nop    DWORD PTR [rax+rax*1+0x0]

000000000000e730 <code_265@plt>:
    e730:	f3 0f 1e fa          	endbr64 
    e734:	f2 ff 25 cd 98 00 00 	bnd jmp QWORD PTR [rip+0x98cd]        # 18008 <code_265@Base>
    e73b:	0f 1f 44 00 00       	nop    DWORD PTR [rax+rax*1+0x0]

000000000000e740 <code_754@plt>:
    e740:	f3 0f 1e fa          	endbr64 
    e744:	f2 ff 25 c5 98 00 00 	bnd jmp QWORD PTR [rip+0x98c5]        # 18010 <code_754@Base>
    e74b:	0f 1f 44 00 00       	nop    DWORD PTR [rax+rax*1+0x0]

000000000000e750 <code_719@plt>:
    e750:	f3 0f 1e fa          	endbr64 
    e754:	f2 ff 25 bd 98 00 00 	bnd jmp QWORD PTR [rip+0x98bd]        # 18018 <code_719@Base>
    e75b:	0f 1f 44 00 00       	nop    DWORD PTR [rax+rax*1+0x0]

000000000000e760 <code_1063@plt>:
    e760:	f3 0f 1e fa          	endbr64 
    e764:	f2 ff 25 b5 98 00 00 	bnd jmp QWORD PTR [rip+0x98b5]        # 18020 <code_1063@Base>
    e76b:	0f 1f 44 00 00       	nop    DWORD PTR [rax+rax*1+0x0]

000000000000e770 <code_761@plt>:
    e770:	f3 0f 1e fa          	endbr64 
    e774:	f2 ff 25 ad 98 00 00 	bnd jmp QWORD PTR [rip+0x98ad]        # 18028 <code_761@Base>
    e77b:	0f 1f 44 00 00       	nop    DWORD PTR [rax+rax*1+0x0]

000000000000e780 <code_717@plt>:
    e780:	f3 0f 1e fa          	endbr64 
    e784:	f2 ff 25 a5 98 00 00 	bnd jmp QWORD PTR [rip+0x98a5]        # 18030 <code_717@Base>
    e78b:	0f 1f 44 00 00       	nop    DWORD PTR [rax+rax*1+0x0]

000000000000e790 <code_269@plt>:
    e790:	f3 0f 1e fa          	endbr64 
    e794:	f2 ff 25 9d 98 00 00 	bnd jmp QWORD PTR [rip+0x989d]        # 18038 <code_269@Base>
    e79b:	0f 1f 44 00 00       	nop    DWORD PTR [rax+rax*1+0x0]

000000000000e7a0 <code_797@plt>:
    e7a0:	f3 0f 1e fa          	endbr64 
    e7a4:	f2 ff 25 95 98 00 00 	bnd jmp QWORD PTR [rip+0x9895]        # 18040 <code_797@Base>
    e7ab:	0f 1f 44 00 00       	nop    DWORD PTR [rax+rax*1+0x0]

000000000000e7b0 <code_4@plt>:
    e7b0:	f3 0f 1e fa          	endbr64 
    e7b4:	f2 ff 25 8d 98 00 00 	bnd jmp QWORD PTR [rip+0x988d]        # 18048 <code_4@Base>
    e7bb:	0f 1f 44 00 00       	nop    DWORD PTR [rax+rax*1+0x0]

000000000000e7c0 <code_328@plt>:
    e7c0:	f3 0f 1e fa          	endbr64 
    e7c4:	f2 ff 25 85 98 00 00 	bnd jmp QWORD PTR [rip+0x9885]        # 18050 <code_328@Base>
    e7cb:	0f 1f 44 00 00       	nop    DWORD PTR [rax+rax*1+0x0]

000000000000e7d0 <code_326@plt>:
    e7d0:	f3 0f 1e fa          	endbr64 
    e7d4:	f2 ff 25 7d 98 00 00 	bnd jmp QWORD PTR [rip+0x987d]        # 18058 <code_326@Base>
    e7db:	0f 1f 44 00 00       	nop    DWORD PTR [rax+rax*1+0x0]

000000000000e7e0 <code_222@plt>:
    e7e0:	f3 0f 1e fa          	endbr64 
    e7e4:	f2 ff 25 75 98 00 00 	bnd jmp QWORD PTR [rip+0x9875]        # 18060 <code_222@Base>
    e7eb:	0f 1f 44 00 00       	nop    DWORD PTR [rax+rax*1+0x0]

000000000000e7f0 <code_829@plt>:
    e7f0:	f3 0f 1e fa          	endbr64 
    e7f4:	f2 ff 25 6d 98 00 00 	bnd jmp QWORD PTR [rip+0x986d]        # 18068 <code_829@Base>
    e7fb:	0f 1f 44 00 00       	nop    DWORD PTR [rax+rax*1+0x0]

000000000000e800 <code_898@plt>:
    e800:	f3 0f 1e fa          	endbr64 
    e804:	f2 ff 25 65 98 00 00 	bnd jmp QWORD PTR [rip+0x9865]        # 18070 <code_898@Base>
    e80b:	0f 1f 44 00 00       	nop    DWORD PTR [rax+rax*1+0x0]

000000000000e810 <code_1114@plt>:
    e810:	f3 0f 1e fa          	endbr64 
    e814:	f2 ff 25 5d 98 00 00 	bnd jmp QWORD PTR [rip+0x985d]        # 18078 <code_1114@Base>
    e81b:	0f 1f 44 00 00       	nop    DWORD PTR [rax+rax*1+0x0]

000000000000e820 <code_369@plt>:
    e820:	f3 0f 1e fa          	endbr64 
    e824:	f2 ff 25 55 98 00 00 	bnd jmp QWORD PTR [rip+0x9855]        # 18080 <code_369@Base>
    e82b:	0f 1f 44 00 00       	nop    DWORD PTR [rax+rax*1+0x0]

000000000000e830 <code_220@plt>:
    e830:	f3 0f 1e fa          	endbr64 
    e834:	f2 ff 25 4d 98 00 00 	bnd jmp QWORD PTR [rip+0x984d]        # 18088 <code_220@Base>
    e83b:	0f 1f 44 00 00       	nop    DWORD PTR [rax+rax*1+0x0]

000000000000e840 <code_827@plt>:
    e840:	f3 0f 1e fa          	endbr64 
    e844:	f2 ff 25 45 98 00 00 	bnd jmp QWORD PTR [rip+0x9845]        # 18090 <code_827@Base>
    e84b:	0f 1f 44 00 00       	nop    DWORD PTR [rax+rax*1+0x0]

000000000000e850 <code_367@plt>:
    e850:	f3 0f 1e fa          	endbr64 
    e854:	f2 ff 25 3d 98 00 00 	bnd jmp QWORD PTR [rip+0x983d]        # 18098 <code_367@Base>
    e85b:	0f 1f 44 00 00       	nop    DWORD PTR [rax+rax*1+0x0]

000000000000e860 <code_1321@plt>:
    e860:	f3 0f 1e fa          	endbr64 
    e864:	f2 ff 25 35 98 00 00 	bnd jmp QWORD PTR [rip+0x9835]        # 180a0 <code_1321@Base>
    e86b:	0f 1f 44 00 00       	nop    DWORD PTR [rax+rax*1+0x0]

000000000000e870 <code_825@plt>:
    e870:	f3 0f 1e fa          	endbr64 
    e874:	f2 ff 25 2d 98 00 00 	bnd jmp QWORD PTR [rip+0x982d]        # 180a8 <code_825@Base>
    e87b:	0f 1f 44 00 00       	nop    DWORD PTR [rax+rax*1+0x0]

000000000000e880 <code_851@plt>:
    e880:	f3 0f 1e fa          	endbr64 
    e884:	f2 ff 25 25 98 00 00 	bnd jmp QWORD PTR [rip+0x9825]        # 180b0 <code_851@Base>
    e88b:	0f 1f 44 00 00       	nop    DWORD PTR [rax+rax*1+0x0]

000000000000e890 <code_814@plt>:
    e890:	f3 0f 1e fa          	endbr64 
    e894:	f2 ff 25 1d 98 00 00 	bnd jmp QWORD PTR [rip+0x981d]        # 180b8 <code_814@Base>
    e89b:	0f 1f 44 00 00       	nop    DWORD PTR [rax+rax*1+0x0]

000000000000e8a0 <code_2@plt>:
    e8a0:	f3 0f 1e fa          	endbr64 
    e8a4:	f2 ff 25 15 98 00 00 	bnd jmp QWORD PTR [rip+0x9815]        # 180c0 <code_2@Base>
    e8ab:	0f 1f 44 00 00       	nop    DWORD PTR [rax+rax*1+0x0]

000000000000e8b0 <code_1360@plt>:
    e8b0:	f3 0f 1e fa          	endbr64 
    e8b4:	f2 ff 25 0d 98 00 00 	bnd jmp QWORD PTR [rip+0x980d]        # 180c8 <code_1360@Base>
    e8bb:	0f 1f 44 00 00       	nop    DWORD PTR [rax+rax*1+0x0]

000000000000e8c0 <code_823@plt>:
    e8c0:	f3 0f 1e fa          	endbr64 
    e8c4:	f2 ff 25 05 98 00 00 	bnd jmp QWORD PTR [rip+0x9805]        # 180d0 <code_823@Base>
    e8cb:	0f 1f 44 00 00       	nop    DWORD PTR [rax+rax*1+0x0]

000000000000e8d0 <code_33@plt>:
    e8d0:	f3 0f 1e fa          	endbr64 
    e8d4:	f2 ff 25 fd 97 00 00 	bnd jmp QWORD PTR [rip+0x97fd]        # 180d8 <code_33@Base>
    e8db:	0f 1f 44 00 00       	nop    DWORD PTR [rax+rax*1+0x0]

000000000000e8e0 <code_1093@plt>:
    e8e0:	f3 0f 1e fa          	endbr64 
    e8e4:	f2 ff 25 f5 97 00 00 	bnd jmp QWORD PTR [rip+0x97f5]        # 180e0 <code_1093@Base>
    e8eb:	0f 1f 44 00 00       	nop    DWORD PTR [rax+rax*1+0x0]

000000000000e8f0 <code_1232@plt>:
    e8f0:	f3 0f 1e fa          	endbr64 
    e8f4:	f2 ff 25 ed 97 00 00 	bnd jmp QWORD PTR [rip+0x97ed]        # 180e8 <code_1232@Base>
    e8fb:	0f 1f 44 00 00       	nop    DWORD PTR [rax+rax*1+0x0]

000000000000e900 <code_862@plt>:
    e900:	f3 0f 1e fa          	endbr64 
    e904:	f2 ff 25 e5 97 00 00 	bnd jmp QWORD PTR [rip+0x97e5]        # 180f0 <code_862@Base>
    e90b:	0f 1f 44 00 00       	nop    DWORD PTR [rax+rax*1+0x0]

000000000000e910 <code_864@plt>:
    e910:	f3 0f 1e fa          	endbr64 
    e914:	f2 ff 25 dd 97 00 00 	bnd jmp QWORD PTR [rip+0x97dd]        # 180f8 <code_864@Base>
    e91b:	0f 1f 44 00 00       	nop    DWORD PTR [rax+rax*1+0x0]

000000000000e920 <code_1362@plt>:
    e920:	f3 0f 1e fa          	endbr64 
    e924:	f2 ff 25 d5 97 00 00 	bnd jmp QWORD PTR [rip+0x97d5]        # 18100 <code_1362@Base>
    e92b:	0f 1f 44 00 00       	nop    DWORD PTR [rax+rax*1+0x0]

000000000000e930 <code_457@plt>:
    e930:	f3 0f 1e fa          	endbr64 
    e934:	f2 ff 25 cd 97 00 00 	bnd jmp QWORD PTR [rip+0x97cd]        # 18108 <code_457@Base>
    e93b:	0f 1f 44 00 00       	nop    DWORD PTR [rax+rax*1+0x0]

000000000000e940 <code_1230@plt>:
    e940:	f3 0f 1e fa          	endbr64 
    e944:	f2 ff 25 c5 97 00 00 	bnd jmp QWORD PTR [rip+0x97c5]        # 18110 <code_1230@Base>
    e94b:	0f 1f 44 00 00       	nop    DWORD PTR [rax+rax*1+0x0]

000000000000e950 <code_1097@plt>:
    e950:	f3 0f 1e fa          	endbr64 
    e954:	f2 ff 25 bd 97 00 00 	bnd jmp QWORD PTR [rip+0x97bd]        # 18118 <code_1097@Base>
    e95b:	0f 1f 44 00 00       	nop    DWORD PTR [rax+rax*1+0x0]

000000000000e960 <code_860@plt>:
    e960:	f3 0f 1e fa          	endbr64 
    e964:	f2 ff 25 b5 97 00 00 	bnd jmp QWORD PTR [rip+0x97b5]        # 18120 <code_860@Base>
    e96b:	0f 1f 44 00 00       	nop    DWORD PTR [rax+rax*1+0x0]

000000000000e970 <code_1095@plt>:
    e970:	f3 0f 1e fa          	endbr64 
    e974:	f2 ff 25 ad 97 00 00 	bnd jmp QWORD PTR [rip+0x97ad]        # 18128 <code_1095@Base>
    e97b:	0f 1f 44 00 00       	nop    DWORD PTR [rax+rax*1+0x0]

000000000000e980 <code_492@plt>:
    e980:	f3 0f 1e fa          	endbr64 
    e984:	f2 ff 25 a5 97 00 00 	bnd jmp QWORD PTR [rip+0x97a5]        # 18130 <code_492@Base>
    e98b:	0f 1f 44 00 00       	nop    DWORD PTR [rax+rax*1+0x0]

000000000000e990 <code_418@plt>:
    e990:	f3 0f 1e fa          	endbr64 
    e994:	f2 ff 25 9d 97 00 00 	bnd jmp QWORD PTR [rip+0x979d]        # 18138 <code_418@Base>
    e99b:	0f 1f 44 00 00       	nop    DWORD PTR [rax+rax*1+0x0]

000000000000e9a0 <code_416@plt>:
    e9a0:	f3 0f 1e fa          	endbr64 
    e9a4:	f2 ff 25 95 97 00 00 	bnd jmp QWORD PTR [rip+0x9795]        # 18140 <code_416@Base>
    e9ab:	0f 1f 44 00 00       	nop    DWORD PTR [rax+rax*1+0x0]

000000000000e9b0 <code_451@plt>:
    e9b0:	f3 0f 1e fa          	endbr64 
    e9b4:	f2 ff 25 8d 97 00 00 	bnd jmp QWORD PTR [rip+0x978d]        # 18148 <code_451@Base>
    e9bb:	0f 1f 44 00 00       	nop    DWORD PTR [rax+rax*1+0x0]

000000000000e9c0 <code_1056@plt>:
    e9c0:	f3 0f 1e fa          	endbr64 
    e9c4:	f2 ff 25 85 97 00 00 	bnd jmp QWORD PTR [rip+0x9785]        # 18150 <code_1056@Base>
    e9cb:	0f 1f 44 00 00       	nop    DWORD PTR [rax+rax*1+0x0]

000000000000e9d0 <code_1423@plt>:
    e9d0:	f3 0f 1e fa          	endbr64 
    e9d4:	f2 ff 25 7d 97 00 00 	bnd jmp QWORD PTR [rip+0x977d]        # 18158 <code_1423@Base>
    e9db:	0f 1f 44 00 00       	nop    DWORD PTR [rax+rax*1+0x0]

000000000000e9e0 <code_1368@plt>:
    e9e0:	f3 0f 1e fa          	endbr64 
    e9e4:	f2 ff 25 75 97 00 00 	bnd jmp QWORD PTR [rip+0x9775]        # 18160 <code_1368@Base>
    e9eb:	0f 1f 44 00 00       	nop    DWORD PTR [rax+rax*1+0x0]

000000000000e9f0 <code_320@plt>:
    e9f0:	f3 0f 1e fa          	endbr64 
    e9f4:	f2 ff 25 6d 97 00 00 	bnd jmp QWORD PTR [rip+0x976d]        # 18168 <code_320@Base>
    e9fb:	0f 1f 44 00 00       	nop    DWORD PTR [rax+rax*1+0x0]

000000000000ea00 <code_1234@plt>:
    ea00:	f3 0f 1e fa          	endbr64 
    ea04:	f2 ff 25 65 97 00 00 	bnd jmp QWORD PTR [rip+0x9765]        # 18170 <code_1234@Base>
    ea0b:	0f 1f 44 00 00       	nop    DWORD PTR [rax+rax*1+0x0]

000000000000ea10 <code_929@plt>:
    ea10:	f3 0f 1e fa          	endbr64 
    ea14:	f2 ff 25 5d 97 00 00 	bnd jmp QWORD PTR [rip+0x975d]        # 18178 <code_929@Base>
    ea1b:	0f 1f 44 00 00       	nop    DWORD PTR [rax+rax*1+0x0]

000000000000ea20 <code_498@plt>:
    ea20:	f3 0f 1e fa          	endbr64 
    ea24:	f2 ff 25 55 97 00 00 	bnd jmp QWORD PTR [rip+0x9755]        # 18180 <code_498@Base>
    ea2b:	0f 1f 44 00 00       	nop    DWORD PTR [rax+rax*1+0x0]

000000000000ea30 <code_1099@plt>:
    ea30:	f3 0f 1e fa          	endbr64 
    ea34:	f2 ff 25 4d 97 00 00 	bnd jmp QWORD PTR [rip+0x974d]        # 18188 <code_1099@Base>
    ea3b:	0f 1f 44 00 00       	nop    DWORD PTR [rax+rax*1+0x0]

000000000000ea40 <code_927@plt>:
    ea40:	f3 0f 1e fa          	endbr64 
    ea44:	f2 ff 25 45 97 00 00 	bnd jmp QWORD PTR [rip+0x9745]        # 18190 <code_927@Base>
    ea4b:	0f 1f 44 00 00       	nop    DWORD PTR [rax+rax*1+0x0]

000000000000ea50 <code_925@plt>:
    ea50:	f3 0f 1e fa          	endbr64 
    ea54:	f2 ff 25 3d 97 00 00 	bnd jmp QWORD PTR [rip+0x973d]        # 18198 <code_925@Base>
    ea5b:	0f 1f 44 00 00       	nop    DWORD PTR [rax+rax*1+0x0]

000000000000ea60 <code_1464@plt>:
    ea60:	f3 0f 1e fa          	endbr64 
    ea64:	f2 ff 25 35 97 00 00 	bnd jmp QWORD PTR [rip+0x9735]        # 181a0 <code_1464@Base>
    ea6b:	0f 1f 44 00 00       	nop    DWORD PTR [rax+rax*1+0x0]

000000000000ea70 <code_1468@plt>:
    ea70:	f3 0f 1e fa          	endbr64 
    ea74:	f2 ff 25 2d 97 00 00 	bnd jmp QWORD PTR [rip+0x972d]        # 181a8 <code_1468@Base>
    ea7b:	0f 1f 44 00 00       	nop    DWORD PTR [rax+rax*1+0x0]

000000000000ea80 <code_129@plt>:
    ea80:	f3 0f 1e fa          	endbr64 
    ea84:	f2 ff 25 25 97 00 00 	bnd jmp QWORD PTR [rip+0x9725]        # 181b0 <code_129@Base>
    ea8b:	0f 1f 44 00 00       	nop    DWORD PTR [rax+rax*1+0x0]

000000000000ea90 <code_960@plt>:
    ea90:	f3 0f 1e fa          	endbr64 
    ea94:	f2 ff 25 1d 97 00 00 	bnd jmp QWORD PTR [rip+0x971d]        # 181b8 <code_960@Base>
    ea9b:	0f 1f 44 00 00       	nop    DWORD PTR [rax+rax*1+0x0]

000000000000eaa0 <code_1110@plt>:
    eaa0:	f3 0f 1e fa          	endbr64 
    eaa4:	f2 ff 25 15 97 00 00 	bnd jmp QWORD PTR [rip+0x9715]        # 181c0 <code_1110@Base>
    eaab:	0f 1f 44 00 00       	nop    DWORD PTR [rax+rax*1+0x0]

000000000000eab0 <code_164@plt>:
    eab0:	f3 0f 1e fa          	endbr64 
    eab4:	f2 ff 25 0d 97 00 00 	bnd jmp QWORD PTR [rip+0x970d]        # 181c8 <code_164@Base>
    eabb:	0f 1f 44 00 00       	nop    DWORD PTR [rax+rax*1+0x0]

000000000000eac0 <code_577@plt>:
    eac0:	f3 0f 1e fa          	endbr64 
    eac4:	f2 ff 25 05 97 00 00 	bnd jmp QWORD PTR [rip+0x9705]        # 181d0 <code_577@Base>
    eacb:	0f 1f 44 00 00       	nop    DWORD PTR [rax+rax*1+0x0]

000000000000ead0 <code_76@plt>:
    ead0:	f3 0f 1e fa          	endbr64 
    ead4:	f2 ff 25 fd 96 00 00 	bnd jmp QWORD PTR [rip+0x96fd]        # 181d8 <code_76@Base>
    eadb:	0f 1f 44 00 00       	nop    DWORD PTR [rax+rax*1+0x0]

000000000000eae0 <code_538@plt>:
    eae0:	f3 0f 1e fa          	endbr64 
    eae4:	f2 ff 25 f5 96 00 00 	bnd jmp QWORD PTR [rip+0x96f5]        # 181e0 <code_538@Base>
    eaeb:	0f 1f 44 00 00       	nop    DWORD PTR [rax+rax*1+0x0]

000000000000eaf0 <code_575@plt>:
    eaf0:	f3 0f 1e fa          	endbr64 
    eaf4:	f2 ff 25 ed 96 00 00 	bnd jmp QWORD PTR [rip+0x96ed]        # 181e8 <code_575@Base>
    eafb:	0f 1f 44 00 00       	nop    DWORD PTR [rax+rax*1+0x0]

000000000000eb00 <code_160@plt>:
    eb00:	f3 0f 1e fa          	endbr64 
    eb04:	f2 ff 25 e5 96 00 00 	bnd jmp QWORD PTR [rip+0x96e5]        # 181f0 <code_160@Base>
    eb0b:	0f 1f 44 00 00       	nop    DWORD PTR [rax+rax*1+0x0]

000000000000eb10 <code_573@plt>:
    eb10:	f3 0f 1e fa          	endbr64 
    eb14:	f2 ff 25 dd 96 00 00 	bnd jmp QWORD PTR [rip+0x96dd]        # 181f8 <code_573@Base>
    eb1b:	0f 1f 44 00 00       	nop    DWORD PTR [rax+rax*1+0x0]

000000000000eb20 <code_70@plt>:
    eb20:	f3 0f 1e fa          	endbr64 
    eb24:	f2 ff 25 d5 96 00 00 	bnd jmp QWORD PTR [rip+0x96d5]        # 18200 <code_70@Base>
    eb2b:	0f 1f 44 00 00       	nop    DWORD PTR [rax+rax*1+0x0]

000000000000eb30 <code_412@plt>:
    eb30:	f3 0f 1e fa          	endbr64 
    eb34:	f2 ff 25 cd 96 00 00 	bnd jmp QWORD PTR [rip+0x96cd]        # 18208 <code_412@Base>
    eb3b:	0f 1f 44 00 00       	nop    DWORD PTR [rax+rax*1+0x0]

000000000000eb40 <code_1306@plt>:
    eb40:	f3 0f 1e fa          	endbr64 
    eb44:	f2 ff 25 c5 96 00 00 	bnd jmp QWORD PTR [rip+0x96c5]        # 18210 <code_1306@Base>
    eb4b:	0f 1f 44 00 00       	nop    DWORD PTR [rax+rax*1+0x0]

000000000000eb50 <code_698@plt>:
    eb50:	f3 0f 1e fa          	endbr64 
    eb54:	f2 ff 25 bd 96 00 00 	bnd jmp QWORD PTR [rip+0x96bd]        # 18218 <code_698@Base>
    eb5b:	0f 1f 44 00 00       	nop    DWORD PTR [rax+rax*1+0x0]

000000000000eb60 <code_651@plt>:
    eb60:	f3 0f 1e fa          	endbr64 
    eb64:	f2 ff 25 b5 96 00 00 	bnd jmp QWORD PTR [rip+0x96b5]        # 18220 <code_651@Base>
    eb6b:	0f 1f 44 00 00       	nop    DWORD PTR [rax+rax*1+0x0]

000000000000eb70 <code_1125@plt>:
    eb70:	f3 0f 1e fa          	endbr64 
    eb74:	f2 ff 25 ad 96 00 00 	bnd jmp QWORD PTR [rip+0x96ad]        # 18228 <code_1125@Base>
    eb7b:	0f 1f 44 00 00       	nop    DWORD PTR [rax+rax*1+0x0]

000000000000eb80 <code_628@plt>:
    eb80:	f3 0f 1e fa          	endbr64 
    eb84:	f2 ff 25 a5 96 00 00 	bnd jmp QWORD PTR [rip+0x96a5]        # 18230 <code_628@Base>
    eb8b:	0f 1f 44 00 00       	nop    DWORD PTR [rax+rax*1+0x0]

000000000000eb90 <code_663@plt>:
    eb90:	f3 0f 1e fa          	endbr64 
    eb94:	f2 ff 25 9d 96 00 00 	bnd jmp QWORD PTR [rip+0x969d]        # 18238 <code_663@Base>
    eb9b:	0f 1f 44 00 00       	nop    DWORD PTR [rax+rax*1+0x0]

000000000000eba0 <code_1300@plt>:
    eba0:	f3 0f 1e fa          	endbr64 
    eba4:	f2 ff 25 95 96 00 00 	bnd jmp QWORD PTR [rip+0x9695]        # 18240 <code_1300@Base>
    ebab:	0f 1f 44 00 00       	nop    DWORD PTR [rax+rax*1+0x0]

000000000000ebb0 <code_1129@plt>:
    ebb0:	f3 0f 1e fa          	endbr64 
    ebb4:	f2 ff 25 8d 96 00 00 	bnd jmp QWORD PTR [rip+0x968d]        # 18248 <code_1129@Base>
    ebbb:	0f 1f 44 00 00       	nop    DWORD PTR [rax+rax*1+0x0]

000000000000ebc0 <code_661@plt>:
    ebc0:	f3 0f 1e fa          	endbr64 
    ebc4:	f2 ff 25 85 96 00 00 	bnd jmp QWORD PTR [rip+0x9685]        # 18250 <code_661@Base>
    ebcb:	0f 1f 44 00 00       	nop    DWORD PTR [rax+rax*1+0x0]

000000000000ebd0 <code_1304@plt>:
    ebd0:	f3 0f 1e fa          	endbr64 
    ebd4:	f2 ff 25 7d 96 00 00 	bnd jmp QWORD PTR [rip+0x967d]        # 18258 <code_1304@Base>
    ebdb:	0f 1f 44 00 00       	nop    DWORD PTR [rax+rax*1+0x0]

000000000000ebe0 <code_299@plt>:
    ebe0:	f3 0f 1e fa          	endbr64 
    ebe4:	f2 ff 25 75 96 00 00 	bnd jmp QWORD PTR [rip+0x9675]        # 18260 <code_299@Base>
    ebeb:	0f 1f 44 00 00       	nop    DWORD PTR [rax+rax*1+0x0]

000000000000ebf0 <code_254@plt>:
    ebf0:	f3 0f 1e fa          	endbr64 
    ebf4:	f2 ff 25 6d 96 00 00 	bnd jmp QWORD PTR [rip+0x966d]        # 18268 <code_254@Base>
    ebfb:	0f 1f 44 00 00       	nop    DWORD PTR [rax+rax*1+0x0]

000000000000ec00 <code_1266@plt>:
    ec00:	f3 0f 1e fa          	endbr64 
    ec04:	f2 ff 25 65 96 00 00 	bnd jmp QWORD PTR [rip+0x9665]        # 18270 <code_1266@Base>
    ec0b:	0f 1f 44 00 00       	nop    DWORD PTR [rax+rax*1+0x0]

000000000000ec10 <code_1264@plt>:
    ec10:	f3 0f 1e fa          	endbr64 
    ec14:	f2 ff 25 5d 96 00 00 	bnd jmp QWORD PTR [rip+0x965d]        # 18278 <code_1264@Base>
    ec1b:	0f 1f 44 00 00       	nop    DWORD PTR [rax+rax*1+0x0]

000000000000ec20 <code_534@plt>:
    ec20:	f3 0f 1e fa          	endbr64 
    ec24:	f2 ff 25 55 96 00 00 	bnd jmp QWORD PTR [rip+0x9655]        # 18280 <code_534@Base>
    ec2b:	0f 1f 44 00 00       	nop    DWORD PTR [rax+rax*1+0x0]

000000000000ec30 <code_571@plt>:
    ec30:	f3 0f 1e fa          	endbr64 
    ec34:	f2 ff 25 4d 96 00 00 	bnd jmp QWORD PTR [rip+0x964d]        # 18288 <code_571@Base>
    ec3b:	0f 1f 44 00 00       	nop    DWORD PTR [rax+rax*1+0x0]

000000000000ec40 <code_769@plt>:
    ec40:	f3 0f 1e fa          	endbr64 
    ec44:	f2 ff 25 45 96 00 00 	bnd jmp QWORD PTR [rip+0x9645]        # 18290 <code_769@Base>
    ec4b:	0f 1f 44 00 00       	nop    DWORD PTR [rax+rax*1+0x0]

000000000000ec50 <code_776@plt>:
    ec50:	f3 0f 1e fa          	endbr64 
    ec54:	f2 ff 25 3d 96 00 00 	bnd jmp QWORD PTR [rip+0x963d]        # 18298 <code_776@Base>
    ec5b:	0f 1f 44 00 00       	nop    DWORD PTR [rax+rax*1+0x0]

000000000000ec60 <code_1074@plt>:
    ec60:	f3 0f 1e fa          	endbr64 
    ec64:	f2 ff 25 35 96 00 00 	bnd jmp QWORD PTR [rip+0x9635]        # 182a0 <code_1074@Base>
    ec6b:	0f 1f 44 00 00       	nop    DWORD PTR [rax+rax*1+0x0]

000000000000ec70 <code_293@plt>:
    ec70:	f3 0f 1e fa          	endbr64 
    ec74:	f2 ff 25 2d 96 00 00 	bnd jmp QWORD PTR [rip+0x962d]        # 182a8 <code_293@Base>
    ec7b:	0f 1f 44 00 00       	nop    DWORD PTR [rax+rax*1+0x0]

000000000000ec80 <code_532@plt>:
    ec80:	f3 0f 1e fa          	endbr64 
    ec84:	f2 ff 25 25 96 00 00 	bnd jmp QWORD PTR [rip+0x9625]        # 182b0 <code_532@Base>
    ec8b:	0f 1f 44 00 00       	nop    DWORD PTR [rax+rax*1+0x0]

000000000000ec90 <code_1406@plt>:
    ec90:	f3 0f 1e fa          	endbr64 
    ec94:	f2 ff 25 1d 96 00 00 	bnd jmp QWORD PTR [rip+0x961d]        # 182b8 <code_1406@Base>
    ec9b:	0f 1f 44 00 00       	nop    DWORD PTR [rax+rax*1+0x0]

000000000000eca0 <code_291@plt>:
    eca0:	f3 0f 1e fa          	endbr64 
    eca4:	f2 ff 25 15 96 00 00 	bnd jmp QWORD PTR [rip+0x9615]        # 182c0 <code_291@Base>
    ecab:	0f 1f 44 00 00       	nop    DWORD PTR [rax+rax*1+0x0]

000000000000ecb0 <code_1268@plt>:
    ecb0:	f3 0f 1e fa          	endbr64 
    ecb4:	f2 ff 25 0d 96 00 00 	bnd jmp QWORD PTR [rip+0x960d]        # 182c8 <code_1268@Base>
    ecbb:	0f 1f 44 00 00       	nop    DWORD PTR [rax+rax*1+0x0]

000000000000ecc0 <code_47@plt>:
    ecc0:	f3 0f 1e fa          	endbr64 
    ecc4:	f2 ff 25 05 96 00 00 	bnd jmp QWORD PTR [rip+0x9605]        # 182d0 <code_47@Base>
    eccb:	0f 1f 44 00 00       	nop    DWORD PTR [rax+rax*1+0x0]

000000000000ecd0 <code_1072@plt>:
    ecd0:	f3 0f 1e fa          	endbr64 
    ecd4:	f2 ff 25 fd 95 00 00 	bnd jmp QWORD PTR [rip+0x95fd]        # 182d8 <code_1072@Base>
    ecdb:	0f 1f 44 00 00       	nop    DWORD PTR [rax+rax*1+0x0]

000000000000ece0 <code_728@plt>:
    ece0:	f3 0f 1e fa          	endbr64 
    ece4:	f2 ff 25 f5 95 00 00 	bnd jmp QWORD PTR [rip+0x95f5]        # 182e0 <code_728@Base>
    eceb:	0f 1f 44 00 00       	nop    DWORD PTR [rax+rax*1+0x0]

000000000000ecf0 <code_1035@plt>:
    ecf0:	f3 0f 1e fa          	endbr64 
    ecf4:	f2 ff 25 ed 95 00 00 	bnd jmp QWORD PTR [rip+0x95ed]        # 182e8 <code_1035@Base>
    ecfb:	0f 1f 44 00 00       	nop    DWORD PTR [rax+rax*1+0x0]

000000000000ed00 <code_1229@plt>:
    ed00:	f3 0f 1e fa          	endbr64 
    ed04:	f2 ff 25 e5 95 00 00 	bnd jmp QWORD PTR [rip+0x95e5]        # 182f0 <code_1229@Base>
    ed0b:	0f 1f 44 00 00       	nop    DWORD PTR [rax+rax*1+0x0]

000000000000ed10 <code_726@plt>:
    ed10:	f3 0f 1e fa          	endbr64 
    ed14:	f2 ff 25 dd 95 00 00 	bnd jmp QWORD PTR [rip+0x95dd]        # 182f8 <code_726@Base>
    ed1b:	0f 1f 44 00 00       	nop    DWORD PTR [rax+rax*1+0x0]

000000000000ed20 <code_6@plt>:
    ed20:	f3 0f 1e fa          	endbr64 
    ed24:	f2 ff 25 d5 95 00 00 	bnd jmp QWORD PTR [rip+0x95d5]        # 18300 <code_6@Base>
    ed2b:	0f 1f 44 00 00       	nop    DWORD PTR [rax+rax*1+0x0]

000000000000ed30 <code_1166@plt>:
    ed30:	f3 0f 1e fa          	endbr64 
    ed34:	f2 ff 25 cd 95 00 00 	bnd jmp QWORD PTR [rip+0x95cd]        # 18308 <code_1166@Base>
    ed3b:	0f 1f 44 00 00       	nop    DWORD PTR [rax+rax*1+0x0]

000000000000ed40 <code_1400@plt>:
    ed40:	f3 0f 1e fa          	endbr64 
    ed44:	f2 ff 25 c5 95 00 00 	bnd jmp QWORD PTR [rip+0x95c5]        # 18310 <code_1400@Base>
    ed4b:	0f 1f 44 00 00       	nop    DWORD PTR [rax+rax*1+0x0]

000000000000ed50 <code_374@plt>:
    ed50:	f3 0f 1e fa          	endbr64 
    ed54:	f2 ff 25 bd 95 00 00 	bnd jmp QWORD PTR [rip+0x95bd]        # 18318 <code_374@Base>
    ed5b:	0f 1f 44 00 00       	nop    DWORD PTR [rax+rax*1+0x0]

000000000000ed60 <code_339@plt>:
    ed60:	f3 0f 1e fa          	endbr64 
    ed64:	f2 ff 25 b5 95 00 00 	bnd jmp QWORD PTR [rip+0x95b5]        # 18320 <code_339@Base>
    ed6b:	0f 1f 44 00 00       	nop    DWORD PTR [rax+rax*1+0x0]

000000000000ed70 <code_337@plt>:
    ed70:	f3 0f 1e fa          	endbr64 
    ed74:	f2 ff 25 ad 95 00 00 	bnd jmp QWORD PTR [rip+0x95ad]        # 18328 <code_337@Base>
    ed7b:	0f 1f 44 00 00       	nop    DWORD PTR [rax+rax*1+0x0]

000000000000ed80 <code_801@plt>:
    ed80:	f3 0f 1e fa          	endbr64 
    ed84:	f2 ff 25 a5 95 00 00 	bnd jmp QWORD PTR [rip+0x95a5]        # 18330 <code_801@Base>
    ed8b:	0f 1f 44 00 00       	nop    DWORD PTR [rax+rax*1+0x0]

000000000000ed90 <code_1144@plt>:
    ed90:	f3 0f 1e fa          	endbr64 
    ed94:	f2 ff 25 9d 95 00 00 	bnd jmp QWORD PTR [rip+0x959d]        # 18338 <code_1144@Base>
    ed9b:	0f 1f 44 00 00       	nop    DWORD PTR [rax+rax*1+0x0]

000000000000eda0 <code_1107@plt>:
    eda0:	f3 0f 1e fa          	endbr64 
    eda4:	f2 ff 25 95 95 00 00 	bnd jmp QWORD PTR [rip+0x9595]        # 18340 <code_1107@Base>
    edab:	0f 1f 44 00 00       	nop    DWORD PTR [rax+rax*1+0x0]

000000000000edb0 <code_1356@plt>:
    edb0:	f3 0f 1e fa          	endbr64 
    edb4:	f2 ff 25 8d 95 00 00 	bnd jmp QWORD PTR [rip+0x958d]        # 18348 <code_1356@Base>
    edbb:	0f 1f 44 00 00       	nop    DWORD PTR [rax+rax*1+0x0]

000000000000edc0 <code_857@plt>:
    edc0:	f3 0f 1e fa          	endbr64 
    edc4:	f2 ff 25 85 95 00 00 	bnd jmp QWORD PTR [rip+0x9585]        # 18350 <code_857@Base>
    edcb:	0f 1f 44 00 00       	nop    DWORD PTR [rax+rax*1+0x0]

000000000000edd0 <code_1354@plt>:
    edd0:	f3 0f 1e fa          	endbr64 
    edd4:	f2 ff 25 7d 95 00 00 	bnd jmp QWORD PTR [rip+0x957d]        # 18358 <code_1354@Base>
    eddb:	0f 1f 44 00 00       	nop    DWORD PTR [rax+rax*1+0x0]

000000000000ede0 <code_1317@plt>:
    ede0:	f3 0f 1e fa          	endbr64 
    ede4:	f2 ff 25 75 95 00 00 	bnd jmp QWORD PTR [rip+0x9575]        # 18360 <code_1317@Base>
    edeb:	0f 1f 44 00 00       	nop    DWORD PTR [rax+rax*1+0x0]

000000000000edf0 <code_45@plt>:
    edf0:	f3 0f 1e fa          	endbr64 
    edf4:	f2 ff 25 6d 95 00 00 	bnd jmp QWORD PTR [rip+0x956d]        # 18368 <code_45@Base>
    edfb:	0f 1f 44 00 00       	nop    DWORD PTR [rax+rax*1+0x0]

000000000000ee00 <code_1142@plt>:
    ee00:	f3 0f 1e fa          	endbr64 
    ee04:	f2 ff 25 65 95 00 00 	bnd jmp QWORD PTR [rip+0x9565]        # 18370 <code_1142@Base>
    ee0b:	0f 1f 44 00 00       	nop    DWORD PTR [rax+rax*1+0x0]

000000000000ee10 <code_805@plt>:
    ee10:	f3 0f 1e fa          	endbr64 
    ee14:	f2 ff 25 5d 95 00 00 	bnd jmp QWORD PTR [rip+0x955d]        # 18378 <code_805@Base>
    ee1b:	0f 1f 44 00 00       	nop    DWORD PTR [rax+rax*1+0x0]

000000000000ee20 <code_1105@plt>:
    ee20:	f3 0f 1e fa          	endbr64 
    ee24:	f2 ff 25 55 95 00 00 	bnd jmp QWORD PTR [rip+0x9555]        # 18380 <code_1105@Base>
    ee2b:	0f 1f 44 00 00       	nop    DWORD PTR [rax+rax*1+0x0]

000000000000ee30 <code_855@plt>:
    ee30:	f3 0f 1e fa          	endbr64 
    ee34:	f2 ff 25 4d 95 00 00 	bnd jmp QWORD PTR [rip+0x954d]        # 18388 <code_855@Base>
    ee3b:	0f 1f 44 00 00       	nop    DWORD PTR [rax+rax*1+0x0]

000000000000ee40 <code_43@plt>:
    ee40:	f3 0f 1e fa          	endbr64 
    ee44:	f2 ff 25 45 95 00 00 	bnd jmp QWORD PTR [rip+0x9545]        # 18390 <code_43@Base>
    ee4b:	0f 1f 44 00 00       	nop    DWORD PTR [rax+rax*1+0x0]

000000000000ee50 <code_853@plt>:
    ee50:	f3 0f 1e fa          	endbr64 
    ee54:	f2 ff 25 3d 95 00 00 	bnd jmp QWORD PTR [rip+0x953d]        # 18398 <code_853@Base>
    ee5b:	0f 1f 44 00 00       	nop    DWORD PTR [rax+rax*1+0x0]

000000000000ee60 <code_816@plt>:
    ee60:	f3 0f 1e fa          	endbr64 
    ee64:	f2 ff 25 35 95 00 00 	bnd jmp QWORD PTR [rip+0x9535]        # 183a0 <code_816@Base>
    ee6b:	0f 1f 44 00 00       	nop    DWORD PTR [rax+rax*1+0x0]

000000000000ee70 <code_894@plt>:
    ee70:	f3 0f 1e fa          	endbr64 
    ee74:	f2 ff 25 2d 95 00 00 	bnd jmp QWORD PTR [rip+0x952d]        # 183a8 <code_894@Base>
    ee7b:	0f 1f 44 00 00       	nop    DWORD PTR [rax+rax*1+0x0]

000000000000ee80 <code_896@plt>:
    ee80:	f3 0f 1e fa          	endbr64 
    ee84:	f2 ff 25 25 95 00 00 	bnd jmp QWORD PTR [rip+0x9525]        # 183b0 <code_896@Base>
    ee8b:	0f 1f 44 00 00       	nop    DWORD PTR [rax+rax*1+0x0]

000000000000ee90 <code_1103@plt>:
    ee90:	f3 0f 1e fa          	endbr64 
    ee94:	f2 ff 25 1d 95 00 00 	bnd jmp QWORD PTR [rip+0x951d]        # 183b8 <code_1103@Base>
    ee9b:	0f 1f 44 00 00       	nop    DWORD PTR [rax+rax*1+0x0]

000000000000eea0 <code_892@plt>:
    eea0:	f3 0f 1e fa          	endbr64 
    eea4:	f2 ff 25 15 95 00 00 	bnd jmp QWORD PTR [rip+0x9515]        # 183c0 <code_892@Base>
    eeab:	0f 1f 44 00 00       	nop    DWORD PTR [rax+rax*1+0x0]

000000000000eeb0 <code_1391@plt>:
    eeb0:	f3 0f 1e fa          	endbr64 
    eeb4:	f2 ff 25 0d 95 00 00 	bnd jmp QWORD PTR [rip+0x950d]        # 183c8 <code_1391@Base>
    eebb:	0f 1f 44 00 00       	nop    DWORD PTR [rax+rax*1+0x0]

000000000000eec0 <code_1101@plt>:
    eec0:	f3 0f 1e fa          	endbr64 
    eec4:	f2 ff 25 05 95 00 00 	bnd jmp QWORD PTR [rip+0x9505]        # 183d0 <code_1101@Base>
    eecb:	0f 1f 44 00 00       	nop    DWORD PTR [rax+rax*1+0x0]

000000000000eed0 <code_448@plt>:
    eed0:	f3 0f 1e fa          	endbr64 
    eed4:	f2 ff 25 fd 94 00 00 	bnd jmp QWORD PTR [rip+0x94fd]        # 183d8 <code_448@Base>
    eedb:	0f 1f 44 00 00       	nop    DWORD PTR [rax+rax*1+0x0]

000000000000eee0 <code_446@plt>:
    eee0:	f3 0f 1e fa          	endbr64 
    eee4:	f2 ff 25 f5 94 00 00 	bnd jmp QWORD PTR [rip+0x94f5]        # 183e0 <code_446@Base>
    eeeb:	0f 1f 44 00 00       	nop    DWORD PTR [rax+rax*1+0x0]

000000000000eef0 <code_409@plt>:
    eef0:	f3 0f 1e fa          	endbr64 
    eef4:	f2 ff 25 ed 94 00 00 	bnd jmp QWORD PTR [rip+0x94ed]        # 183e8 <code_409@Base>
    eefb:	0f 1f 44 00 00       	nop    DWORD PTR [rax+rax*1+0x0]

000000000000ef00 <code_1399@plt>:
    ef00:	f3 0f 1e fa          	endbr64 
    ef04:	f2 ff 25 e5 94 00 00 	bnd jmp QWORD PTR [rip+0x94e5]        # 183f0 <code_1399@Base>
    ef0b:	0f 1f 44 00 00       	nop    DWORD PTR [rax+rax*1+0x0]

000000000000ef10 <code_407@plt>:
    ef10:	f3 0f 1e fa          	endbr64 
    ef14:	f2 ff 25 dd 94 00 00 	bnd jmp QWORD PTR [rip+0x94dd]        # 183f8 <code_407@Base>
    ef1b:	0f 1f 44 00 00       	nop    DWORD PTR [rax+rax*1+0x0]

000000000000ef20 <code_1434@plt>:
    ef20:	f3 0f 1e fa          	endbr64 
    ef24:	f2 ff 25 d5 94 00 00 	bnd jmp QWORD PTR [rip+0x94d5]        # 18400 <code_1434@Base>
    ef2b:	0f 1f 44 00 00       	nop    DWORD PTR [rax+rax*1+0x0]

000000000000ef30 <code_1069@plt>:
    ef30:	f3 0f 1e fa          	endbr64 
    ef34:	f2 ff 25 cd 94 00 00 	bnd jmp QWORD PTR [rip+0x94cd]        # 18408 <code_1069@Base>
    ef3b:	0f 1f 44 00 00       	nop    DWORD PTR [rax+rax*1+0x0]

000000000000ef40 <code_333@plt>:
    ef40:	f3 0f 1e fa          	endbr64 
    ef44:	f2 ff 25 c5 94 00 00 	bnd jmp QWORD PTR [rip+0x94c5]        # 18410 <code_333@Base>
    ef4b:	0f 1f 44 00 00       	nop    DWORD PTR [rax+rax*1+0x0]

000000000000ef50 <code_1246@plt>:
    ef50:	f3 0f 1e fa          	endbr64 
    ef54:	f2 ff 25 bd 94 00 00 	bnd jmp QWORD PTR [rip+0x94bd]        # 18418 <code_1246@Base>
    ef5b:	0f 1f 44 00 00       	nop    DWORD PTR [rax+rax*1+0x0]

000000000000ef60 <fprintf@plt>:
    ef60:	f3 0f 1e fa          	endbr64 
    ef64:	f2 ff 25 b5 94 00 00 	bnd jmp QWORD PTR [rip+0x94b5]        # 18420 <fprintf@GLIBC_2.2.5>
    ef6b:	0f 1f 44 00 00       	nop    DWORD PTR [rax+rax*1+0x0]

000000000000ef70 <code_1395@plt>:
    ef70:	f3 0f 1e fa          	endbr64 
    ef74:	f2 ff 25 ad 94 00 00 	bnd jmp QWORD PTR [rip+0x94ad]        # 18428 <code_1395@Base>
    ef7b:	0f 1f 44 00 00       	nop    DWORD PTR [rax+rax*1+0x0]

000000000000ef80 <code_331@plt>:
    ef80:	f3 0f 1e fa          	endbr64 
    ef84:	f2 ff 25 a5 94 00 00 	bnd jmp QWORD PTR [rip+0x94a5]        # 18430 <code_331@Base>
    ef8b:	0f 1f 44 00 00       	nop    DWORD PTR [rax+rax*1+0x0]

000000000000ef90 <code_989@plt>:
    ef90:	f3 0f 1e fa          	endbr64 
    ef94:	f2 ff 25 9d 94 00 00 	bnd jmp QWORD PTR [rip+0x949d]        # 18438 <code_989@Base>
    ef9b:	0f 1f 44 00 00       	nop    DWORD PTR [rax+rax*1+0x0]

000000000000efa0 <code_901@plt>:
    efa0:	f3 0f 1e fa          	endbr64 
    efa4:	f2 ff 25 95 94 00 00 	bnd jmp QWORD PTR [rip+0x9495]        # 18440 <code_901@Base>
    efab:	0f 1f 44 00 00       	nop    DWORD PTR [rax+rax*1+0x0]

000000000000efb0 <code_1471@plt>:
    efb0:	f3 0f 1e fa          	endbr64 
    efb4:	f2 ff 25 8d 94 00 00 	bnd jmp QWORD PTR [rip+0x948d]        # 18448 <code_1471@Base>
    efbb:	0f 1f 44 00 00       	nop    DWORD PTR [rax+rax*1+0x0]

000000000000efc0 <code_933@plt>:
    efc0:	f3 0f 1e fa          	endbr64 
    efc4:	f2 ff 25 85 94 00 00 	bnd jmp QWORD PTR [rip+0x9485]        # 18450 <code_933@Base>
    efcb:	0f 1f 44 00 00       	nop    DWORD PTR [rax+rax*1+0x0]

000000000000efd0 <code_903@plt>:
    efd0:	f3 0f 1e fa          	endbr64 
    efd4:	f2 ff 25 7d 94 00 00 	bnd jmp QWORD PTR [rip+0x947d]        # 18458 <code_903@Base>
    efdb:	0f 1f 44 00 00       	nop    DWORD PTR [rax+rax*1+0x0]

000000000000efe0 <code_1242@plt>:
    efe0:	f3 0f 1e fa          	endbr64 
    efe4:	f2 ff 25 75 94 00 00 	bnd jmp QWORD PTR [rip+0x9475]        # 18460 <code_1242@Base>
    efeb:	0f 1f 44 00 00       	nop    DWORD PTR [rax+rax*1+0x0]

000000000000eff0 <code_1203@plt>:
    eff0:	f3 0f 1e fa          	endbr64 
    eff4:	f2 ff 25 6d 94 00 00 	bnd jmp QWORD PTR [rip+0x946d]        # 18468 <code_1203@Base>
    effb:	0f 1f 44 00 00       	nop    DWORD PTR [rax+rax*1+0x0]

000000000000f000 <code_489@plt>:
    f000:	f3 0f 1e fa          	endbr64 
    f004:	f2 ff 25 65 94 00 00 	bnd jmp QWORD PTR [rip+0x9465]        # 18470 <code_489@Base>
    f00b:	0f 1f 44 00 00       	nop    DWORD PTR [rax+rax*1+0x0]

000000000000f010 <code_1436@plt>:
    f010:	f3 0f 1e fa          	endbr64 
    f014:	f2 ff 25 5d 94 00 00 	bnd jmp QWORD PTR [rip+0x945d]        # 18478 <code_1436@Base>
    f01b:	0f 1f 44 00 00       	nop    DWORD PTR [rax+rax*1+0x0]

000000000000f020 <code_1473@plt>:
    f020:	f3 0f 1e fa          	endbr64 
    f024:	f2 ff 25 55 94 00 00 	bnd jmp QWORD PTR [rip+0x9455]        # 18480 <code_1473@Base>
    f02b:	0f 1f 44 00 00       	nop    DWORD PTR [rax+rax*1+0x0]

000000000000f030 <code_974@plt>:
    f030:	f3 0f 1e fa          	endbr64 
    f034:	f2 ff 25 4d 94 00 00 	bnd jmp QWORD PTR [rip+0x944d]        # 18488 <code_974@Base>
    f03b:	0f 1f 44 00 00       	nop    DWORD PTR [rax+rax*1+0x0]

000000000000f040 <code_970@plt>:
    f040:	f3 0f 1e fa          	endbr64 
    f044:	f2 ff 25 45 94 00 00 	bnd jmp QWORD PTR [rip+0x9445]        # 18490 <code_970@Base>
    f04b:	0f 1f 44 00 00       	nop    DWORD PTR [rax+rax*1+0x0]

000000000000f050 <code_1475@plt>:
    f050:	f3 0f 1e fa          	endbr64 
    f054:	f2 ff 25 3d 94 00 00 	bnd jmp QWORD PTR [rip+0x943d]        # 18498 <code_1475@Base>
    f05b:	0f 1f 44 00 00       	nop    DWORD PTR [rax+rax*1+0x0]

000000000000f060 <code_583@plt>:
    f060:	f3 0f 1e fa          	endbr64 
    f064:	f2 ff 25 35 94 00 00 	bnd jmp QWORD PTR [rip+0x9435]        # 184a0 <code_583@Base>
    f06b:	0f 1f 44 00 00       	nop    DWORD PTR [rax+rax*1+0x0]

000000000000f070 <code_133@plt>:
    f070:	f3 0f 1e fa          	endbr64 
    f074:	f2 ff 25 2d 94 00 00 	bnd jmp QWORD PTR [rip+0x942d]        # 184a8 <code_133@Base>
    f07b:	0f 1f 44 00 00       	nop    DWORD PTR [rax+rax*1+0x0]

000000000000f080 <code_548@plt>:
    f080:	f3 0f 1e fa          	endbr64 
    f084:	f2 ff 25 25 94 00 00 	bnd jmp QWORD PTR [rip+0x9425]        # 184b0 <code_548@Base>
    f08b:	0f 1f 44 00 00       	nop    DWORD PTR [rax+rax*1+0x0]

000000000000f090 <code_581@plt>:
    f090:	f3 0f 1e fa          	endbr64 
    f094:	f2 ff 25 1d 94 00 00 	bnd jmp QWORD PTR [rip+0x941d]        # 184b8 <code_581@Base>
    f09b:	0f 1f 44 00 00       	nop    DWORD PTR [rax+rax*1+0x0]

000000000000f0a0 <code_546@plt>:
    f0a0:	f3 0f 1e fa          	endbr64 
    f0a4:	f2 ff 25 15 94 00 00 	bnd jmp QWORD PTR [rip+0x9415]        # 184c0 <code_546@Base>
    f0ab:	0f 1f 44 00 00       	nop    DWORD PTR [rax+rax*1+0x0]

000000000000f0b0 <code_84@plt>:
    f0b0:	f3 0f 1e fa          	endbr64 
    f0b4:	f2 ff 25 0d 94 00 00 	bnd jmp QWORD PTR [rip+0x940d]        # 184c8 <code_84@Base>
    f0bb:	0f 1f 44 00 00       	nop    DWORD PTR [rax+rax*1+0x0]

000000000000f0c0 <code_1140@plt>:
    f0c0:	f3 0f 1e fa          	endbr64 
    f0c4:	f2 ff 25 05 94 00 00 	bnd jmp QWORD PTR [rip+0x9405]        # 184d0 <code_1140@Base>
    f0cb:	0f 1f 44 00 00       	nop    DWORD PTR [rax+rax*1+0x0]

000000000000f0d0 <code_509@plt>:
    f0d0:	f3 0f 1e fa          	endbr64 
    f0d4:	f2 ff 25 fd 93 00 00 	bnd jmp QWORD PTR [rip+0x93fd]        # 184d8 <code_509@Base>
    f0db:	0f 1f 44 00 00       	nop    DWORD PTR [rax+rax*1+0x0]

000000000000f0e0 <code_601@plt>:
    f0e0:	f3 0f 1e fa          	endbr64 
    f0e4:	f2 ff 25 f5 93 00 00 	bnd jmp QWORD PTR [rip+0x93f5]        # 184e0 <code_601@Base>
    f0eb:	0f 1f 44 00 00       	nop    DWORD PTR [rax+rax*1+0x0]

000000000000f0f0 <code_139@plt>:
    f0f0:	f3 0f 1e fa          	endbr64 
    f0f4:	f2 ff 25 ed 93 00 00 	bnd jmp QWORD PTR [rip+0x93ed]        # 184e8 <code_139@Base>
    f0fb:	0f 1f 44 00 00       	nop    DWORD PTR [rax+rax*1+0x0]

000000000000f100 <code_687@plt>:
    f100:	f3 0f 1e fa          	endbr64 
    f104:	f2 ff 25 e5 93 00 00 	bnd jmp QWORD PTR [rip+0x93e5]        # 184f0 <code_687@Base>
    f10b:	0f 1f 44 00 00       	nop    DWORD PTR [rax+rax*1+0x0]

000000000000f110 <code_440@plt>:
    f110:	f3 0f 1e fa          	endbr64 
    f114:	f2 ff 25 dd 93 00 00 	bnd jmp QWORD PTR [rip+0x93dd]        # 184f8 <code_440@Base>
    f11b:	0f 1f 44 00 00       	nop    DWORD PTR [rax+rax*1+0x0]

000000000000f120 <code_403@plt>:
    f120:	f3 0f 1e fa          	endbr64 
    f124:	f2 ff 25 d5 93 00 00 	bnd jmp QWORD PTR [rip+0x93d5]        # 18500 <code_403@Base>
    f12b:	0f 1f 44 00 00       	nop    DWORD PTR [rax+rax*1+0x0]

000000000000f130 <code_1116@plt>:
    f130:	f3 0f 1e fa          	endbr64 
    f134:	f2 ff 25 cd 93 00 00 	bnd jmp QWORD PTR [rip+0x93cd]        # 18508 <code_1116@Base>
    f13b:	0f 1f 44 00 00       	nop    DWORD PTR [rax+rax*1+0x0]

000000000000f140 <code_659@plt>:
    f140:	f3 0f 1e fa          	endbr64 
    f144:	f2 ff 25 c5 93 00 00 	bnd jmp QWORD PTR [rip+0x93c5]        # 18510 <code_659@Base>
    f14b:	0f 1f 44 00 00       	nop    DWORD PTR [rax+rax*1+0x0]

000000000000f150 <code_1331@plt>:
    f150:	f3 0f 1e fa          	endbr64 
    f154:	f2 ff 25 bd 93 00 00 	bnd jmp QWORD PTR [rip+0x93bd]        # 18518 <code_1331@Base>
    f15b:	0f 1f 44 00 00       	nop    DWORD PTR [rax+rax*1+0x0]

000000000000f160 <code_642@plt>:
    f160:	f3 0f 1e fa          	endbr64 
    f164:	f2 ff 25 b5 93 00 00 	bnd jmp QWORD PTR [rip+0x93b5]        # 18520 <code_642@Base>
    f16b:	0f 1f 44 00 00       	nop    DWORD PTR [rax+rax*1+0x0]

000000000000f170 <code_607@plt>:
    f170:	f3 0f 1e fa          	endbr64 
    f174:	f2 ff 25 ad 93 00 00 	bnd jmp QWORD PTR [rip+0x93ad]        # 18528 <code_607@Base>
    f17b:	0f 1f 44 00 00       	nop    DWORD PTR [rax+rax*1+0x0]

000000000000f180 <code_657@plt>:
    f180:	f3 0f 1e fa          	endbr64 
    f184:	f2 ff 25 a5 93 00 00 	bnd jmp QWORD PTR [rip+0x93a5]        # 18530 <code_657@Base>
    f18b:	0f 1f 44 00 00       	nop    DWORD PTR [rax+rax*1+0x0]

000000000000f190 <code_176@plt>:
    f190:	f3 0f 1e fa          	endbr64 
    f194:	f2 ff 25 9d 93 00 00 	bnd jmp QWORD PTR [rip+0x939d]        # 18538 <code_176@Base>
    f19b:	0f 1f 44 00 00       	nop    DWORD PTR [rax+rax*1+0x0]

000000000000f1a0 <code_1273@plt>:
    f1a0:	f3 0f 1e fa          	endbr64 
    f1a4:	f2 ff 25 95 93 00 00 	bnd jmp QWORD PTR [rip+0x9395]        # 18540 <code_1273@Base>
    f1ab:	0f 1f 44 00 00       	nop    DWORD PTR [rax+rax*1+0x0]

000000000000f1b0 <code_692@plt>:
    f1b0:	f3 0f 1e fa          	endbr64 
    f1b4:	f2 ff 25 8d 93 00 00 	bnd jmp QWORD PTR [rip+0x938d]        # 18548 <code_692@Base>
    f1bb:	0f 1f 44 00 00       	nop    DWORD PTR [rax+rax*1+0x0]

000000000000f1c0 <code_285@plt>:
    f1c0:	f3 0f 1e fa          	endbr64 
    f1c4:	f2 ff 25 85 93 00 00 	bnd jmp QWORD PTR [rip+0x9385]        # 18550 <code_285@Base>
    f1cb:	0f 1f 44 00 00       	nop    DWORD PTR [rax+rax*1+0x0]

000000000000f1d0 <code_248@plt>:
    f1d0:	f3 0f 1e fa          	endbr64 
    f1d4:	f2 ff 25 7d 93 00 00 	bnd jmp QWORD PTR [rip+0x937d]        # 18558 <code_248@Base>
    f1db:	0f 1f 44 00 00       	nop    DWORD PTR [rax+rax*1+0x0]

000000000000f1e0 <init@plt>:
    f1e0:	f3 0f 1e fa          	endbr64 
    f1e4:	f2 ff 25 75 93 00 00 	bnd jmp QWORD PTR [rip+0x9375]        # 18560 <init@Base>
    f1eb:	0f 1f 44 00 00       	nop    DWORD PTR [rax+rax*1+0x0]

000000000000f1f0 <code_1040@plt>:
    f1f0:	f3 0f 1e fa          	endbr64 
    f1f4:	f2 ff 25 6d 93 00 00 	bnd jmp QWORD PTR [rip+0x936d]        # 18568 <code_1040@Base>
    f1fb:	0f 1f 44 00 00       	nop    DWORD PTR [rax+rax*1+0x0]

000000000000f200 <code_283@plt>:
    f200:	f3 0f 1e fa          	endbr64 
    f204:	f2 ff 25 65 93 00 00 	bnd jmp QWORD PTR [rip+0x9365]        # 18570 <code_283@Base>
    f20b:	0f 1f 44 00 00       	nop    DWORD PTR [rax+rax*1+0x0]

000000000000f210 <code_244@plt>:
    f210:	f3 0f 1e fa          	endbr64 
    f214:	f2 ff 25 5d 93 00 00 	bnd jmp QWORD PTR [rip+0x935d]        # 18578 <code_244@Base>
    f21b:	0f 1f 44 00 00       	nop    DWORD PTR [rax+rax*1+0x0]

000000000000f220 <code_501@plt>:
    f220:	f3 0f 1e fa          	endbr64 
    f224:	f2 ff 25 55 93 00 00 	bnd jmp QWORD PTR [rip+0x9355]        # 18580 <code_501@Base>
    f22b:	0f 1f 44 00 00       	nop    DWORD PTR [rax+rax*1+0x0]

000000000000f230 <code_242@plt>:
    f230:	f3 0f 1e fa          	endbr64 
    f234:	f2 ff 25 4d 93 00 00 	bnd jmp QWORD PTR [rip+0x934d]        # 18588 <code_242@Base>
    f23b:	0f 1f 44 00 00       	nop    DWORD PTR [rax+rax*1+0x0]

000000000000f240 <code_739@plt>:
    f240:	f3 0f 1e fa          	endbr64 
    f244:	f2 ff 25 45 93 00 00 	bnd jmp QWORD PTR [rip+0x9345]        # 18590 <code_739@Base>
    f24b:	0f 1f 44 00 00       	nop    DWORD PTR [rax+rax*1+0x0]

000000000000f250 <code_785@plt>:
    f250:	f3 0f 1e fa          	endbr64 
    f254:	f2 ff 25 3d 93 00 00 	bnd jmp QWORD PTR [rip+0x933d]        # 18598 <code_785@Base>
    f25b:	0f 1f 44 00 00       	nop    DWORD PTR [rax+rax*1+0x0]

000000000000f260 <code_505@plt>:
    f260:	f3 0f 1e fa          	endbr64 
    f264:	f2 ff 25 35 93 00 00 	bnd jmp QWORD PTR [rip+0x9335]        # 185a0 <code_505@Base>
    f26b:	0f 1f 44 00 00       	nop    DWORD PTR [rax+rax*1+0x0]

000000000000f270 <code_701@plt>:
    f270:	f3 0f 1e fa          	endbr64 
    f274:	f2 ff 25 2d 93 00 00 	bnd jmp QWORD PTR [rip+0x932d]        # 185a8 <code_701@Base>
    f27b:	0f 1f 44 00 00       	nop    DWORD PTR [rax+rax*1+0x0]

000000000000f280 <code_287@plt>:
    f280:	f3 0f 1e fa          	endbr64 
    f284:	f2 ff 25 25 93 00 00 	bnd jmp QWORD PTR [rip+0x9325]        # 185b0 <code_287@Base>
    f28b:	0f 1f 44 00 00       	nop    DWORD PTR [rax+rax*1+0x0]

000000000000f290 <code_787@plt>:
    f290:	f3 0f 1e fa          	endbr64 
    f294:	f2 ff 25 1d 93 00 00 	bnd jmp QWORD PTR [rip+0x931d]        # 185b8 <code_787@Base>
    f29b:	0f 1f 44 00 00       	nop    DWORD PTR [rax+rax*1+0x0]

000000000000f2a0 <code_1279@plt>:
    f2a0:	f3 0f 1e fa          	endbr64 
    f2a4:	f2 ff 25 15 93 00 00 	bnd jmp QWORD PTR [rip+0x9315]        # 185c0 <code_1279@Base>
    f2ab:	0f 1f 44 00 00       	nop    DWORD PTR [rax+rax*1+0x0]

000000000000f2b0 <code_58@plt>:
    f2b0:	f3 0f 1e fa          	endbr64 
    f2b4:	f2 ff 25 0d 93 00 00 	bnd jmp QWORD PTR [rip+0x930d]        # 185c8 <code_58@Base>
    f2bb:	0f 1f 44 00 00       	nop    DWORD PTR [rax+rax*1+0x0]

000000000000f2c0 <code_1007@plt>:
    f2c0:	f3 0f 1e fa          	endbr64 
    f2c4:	f2 ff 25 05 93 00 00 	bnd jmp QWORD PTR [rip+0x9305]        # 185d0 <code_1007@Base>
    f2cb:	0f 1f 44 00 00       	nop    DWORD PTR [rax+rax*1+0x0]

000000000000f2d0 <code_772@plt>:
    f2d0:	f3 0f 1e fa          	endbr64 
    f2d4:	f2 ff 25 fd 92 00 00 	bnd jmp QWORD PTR [rip+0x92fd]        # 185d8 <code_772@Base>
    f2db:	0f 1f 44 00 00       	nop    DWORD PTR [rax+rax*1+0x0]

000000000000f2e0 <code_1001@plt>:
    f2e0:	f3 0f 1e fa          	endbr64 
    f2e4:	f2 ff 25 f5 92 00 00 	bnd jmp QWORD PTR [rip+0x92f5]        # 185e0 <code_1001@Base>
    f2eb:	0f 1f 44 00 00       	nop    DWORD PTR [rax+rax*1+0x0]

000000000000f2f0 <code_1151@plt>:
    f2f0:	f3 0f 1e fa          	endbr64 
    f2f4:	f2 ff 25 ed 92 00 00 	bnd jmp QWORD PTR [rip+0x92ed]        # 185e8 <code_1151@Base>
    f2fb:	0f 1f 44 00 00       	nop    DWORD PTR [rax+rax*1+0x0]

000000000000f300 <code_50@plt>:
    f300:	f3 0f 1e fa          	endbr64 
    f304:	f2 ff 25 e5 92 00 00 	bnd jmp QWORD PTR [rip+0x92e5]        # 185f0 <code_50@Base>
    f30b:	0f 1f 44 00 00       	nop    DWORD PTR [rax+rax*1+0x0]

000000000000f310 <code_1192@plt>:
    f310:	f3 0f 1e fa          	endbr64 
    f314:	f2 ff 25 dd 92 00 00 	bnd jmp QWORD PTR [rip+0x92dd]        # 185f8 <code_1192@Base>
    f31b:	0f 1f 44 00 00       	nop    DWORD PTR [rax+rax*1+0x0]

000000000000f320 <code_240@plt>:
    f320:	f3 0f 1e fa          	endbr64 
    f324:	f2 ff 25 d5 92 00 00 	bnd jmp QWORD PTR [rip+0x92d5]        # 18600 <code_240@Base>
    f32b:	0f 1f 44 00 00       	nop    DWORD PTR [rax+rax*1+0x0]

000000000000f330 <code_203@plt>:
    f330:	f3 0f 1e fa          	endbr64 
    f334:	f2 ff 25 cd 92 00 00 	bnd jmp QWORD PTR [rip+0x92cd]        # 18608 <code_203@Base>
    f33b:	0f 1f 44 00 00       	nop    DWORD PTR [rax+rax*1+0x0]

000000000000f340 <code_307@plt>:
    f340:	f3 0f 1e fa          	endbr64 
    f344:	f2 ff 25 c5 92 00 00 	bnd jmp QWORD PTR [rip+0x92c5]        # 18610 <code_307@Base>
    f34b:	0f 1f 44 00 00       	nop    DWORD PTR [rax+rax*1+0x0]

000000000000f350 <code_15@plt>:
    f350:	f3 0f 1e fa          	endbr64 
    f354:	f2 ff 25 bd 92 00 00 	bnd jmp QWORD PTR [rip+0x92bd]        # 18618 <code_15@Base>
    f35b:	0f 1f 44 00 00       	nop    DWORD PTR [rax+rax*1+0x0]

000000000000f360 <code_201@plt>:
    f360:	f3 0f 1e fa          	endbr64 
    f364:	f2 ff 25 b5 92 00 00 	bnd jmp QWORD PTR [rip+0x92b5]        # 18620 <code_201@Base>
    f36b:	0f 1f 44 00 00       	nop    DWORD PTR [rax+rax*1+0x0]

000000000000f370 <code_876@plt>:
    f370:	f3 0f 1e fa          	endbr64 
    f374:	f2 ff 25 ad 92 00 00 	bnd jmp QWORD PTR [rip+0x92ad]        # 18628 <code_876@Base>
    f37b:	0f 1f 44 00 00       	nop    DWORD PTR [rax+rax*1+0x0]

000000000000f380 <code_1194@plt>:
    f380:	f3 0f 1e fa          	endbr64 
    f384:	f2 ff 25 a5 92 00 00 	bnd jmp QWORD PTR [rip+0x92a5]        # 18630 <code_1194@Base>
    f38b:	0f 1f 44 00 00       	nop    DWORD PTR [rax+rax*1+0x0]

000000000000f390 <code_1345@plt>:
    f390:	f3 0f 1e fa          	endbr64 
    f394:	f2 ff 25 9d 92 00 00 	bnd jmp QWORD PTR [rip+0x929d]        # 18638 <code_1345@Base>
    f39b:	0f 1f 44 00 00       	nop    DWORD PTR [rax+rax*1+0x0]

000000000000f3a0 <code_1137@plt>:
    f3a0:	f3 0f 1e fa          	endbr64 
    f3a4:	f2 ff 25 95 92 00 00 	bnd jmp QWORD PTR [rip+0x9295]        # 18640 <code_1137@Base>
    f3ab:	0f 1f 44 00 00       	nop    DWORD PTR [rax+rax*1+0x0]

000000000000f3b0 <code_56@plt>:
    f3b0:	f3 0f 1e fa          	endbr64 
    f3b4:	f2 ff 25 8d 92 00 00 	bnd jmp QWORD PTR [rip+0x928d]        # 18648 <code_56@Base>
    f3bb:	0f 1f 44 00 00       	nop    DWORD PTR [rax+rax*1+0x0]

000000000000f3c0 <code_1308@plt>:
    f3c0:	f3 0f 1e fa          	endbr64 
    f3c4:	f2 ff 25 85 92 00 00 	bnd jmp QWORD PTR [rip+0x9285]        # 18650 <code_1308@Base>
    f3cb:	0f 1f 44 00 00       	nop    DWORD PTR [rax+rax*1+0x0]

000000000000f3d0 <code_1133@plt>:
    f3d0:	f3 0f 1e fa          	endbr64 
    f3d4:	f2 ff 25 7d 92 00 00 	bnd jmp QWORD PTR [rip+0x927d]        # 18658 <code_1133@Base>
    f3db:	0f 1f 44 00 00       	nop    DWORD PTR [rax+rax*1+0x0]

000000000000f3e0 <code_1347@plt>:
    f3e0:	f3 0f 1e fa          	endbr64 
    f3e4:	f2 ff 25 75 92 00 00 	bnd jmp QWORD PTR [rip+0x9275]        # 18660 <code_1347@Base>
    f3eb:	0f 1f 44 00 00       	nop    DWORD PTR [rax+rax*1+0x0]

000000000000f3f0 <code_807@plt>:
    f3f0:	f3 0f 1e fa          	endbr64 
    f3f4:	f2 ff 25 6d 92 00 00 	bnd jmp QWORD PTR [rip+0x926d]        # 18668 <code_807@Base>
    f3fb:	0f 1f 44 00 00       	nop    DWORD PTR [rax+rax*1+0x0]

000000000000f400 <code_842@plt>:
    f400:	f3 0f 1e fa          	endbr64 
    f404:	f2 ff 25 65 92 00 00 	bnd jmp QWORD PTR [rip+0x9265]        # 18670 <code_842@Base>
    f40b:	0f 1f 44 00 00       	nop    DWORD PTR [rax+rax*1+0x0]

000000000000f410 <code_885@plt>:
    f410:	f3 0f 1e fa          	endbr64 
    f414:	f2 ff 25 5d 92 00 00 	bnd jmp QWORD PTR [rip+0x925d]        # 18678 <code_885@Base>
    f41b:	0f 1f 44 00 00       	nop    DWORD PTR [rax+rax*1+0x0]

000000000000f420 <code_1198@plt>:
    f420:	f3 0f 1e fa          	endbr64 
    f424:	f2 ff 25 55 92 00 00 	bnd jmp QWORD PTR [rip+0x9255]        # 18680 <code_1198@Base>
    f42b:	0f 1f 44 00 00       	nop    DWORD PTR [rax+rax*1+0x0]

000000000000f430 <code_1388@plt>:
    f430:	f3 0f 1e fa          	endbr64 
    f434:	f2 ff 25 4d 92 00 00 	bnd jmp QWORD PTR [rip+0x924d]        # 18688 <code_1388@Base>
    f43b:	0f 1f 44 00 00       	nop    DWORD PTR [rax+rax*1+0x0]

000000000000f440 <code_1380@plt>:
    f440:	f3 0f 1e fa          	endbr64 
    f444:	f2 ff 25 45 92 00 00 	bnd jmp QWORD PTR [rip+0x9245]        # 18690 <code_1380@Base>
    f44b:	0f 1f 44 00 00       	nop    DWORD PTR [rax+rax*1+0x0]

000000000000f450 <code_439@plt>:
    f450:	f3 0f 1e fa          	endbr64 
    f454:	f2 ff 25 3d 92 00 00 	bnd jmp QWORD PTR [rip+0x923d]        # 18698 <code_439@Base>
    f45b:	0f 1f 44 00 00       	nop    DWORD PTR [rax+rax*1+0x0]

000000000000f460 <code_437@plt>:
    f460:	f3 0f 1e fa          	endbr64 
    f464:	f2 ff 25 35 92 00 00 	bnd jmp QWORD PTR [rip+0x9235]        # 186a0 <code_437@Base>
    f46b:	0f 1f 44 00 00       	nop    DWORD PTR [rax+rax*1+0x0]

000000000000f470 <code_470@plt>:
    f470:	f3 0f 1e fa          	endbr64 
    f474:	f2 ff 25 2d 92 00 00 	bnd jmp QWORD PTR [rip+0x922d]        # 186a8 <code_470@Base>
    f47b:	0f 1f 44 00 00       	nop    DWORD PTR [rax+rax*1+0x0]

000000000000f480 <code_433@plt>:
    f480:	f3 0f 1e fa          	endbr64 
    f484:	f2 ff 25 25 92 00 00 	bnd jmp QWORD PTR [rip+0x9225]        # 186b0 <code_433@Base>
    f48b:	0f 1f 44 00 00       	nop    DWORD PTR [rax+rax*1+0x0]

000000000000f490 <code_1445@plt>:
    f490:	f3 0f 1e fa          	endbr64 
    f494:	f2 ff 25 1d 92 00 00 	bnd jmp QWORD PTR [rip+0x921d]        # 186b8 <code_1445@Base>
    f49b:	0f 1f 44 00 00       	nop    DWORD PTR [rax+rax*1+0x0]

000000000000f4a0 <code_340@plt>:
    f4a0:	f3 0f 1e fa          	endbr64 
    f4a4:	f2 ff 25 15 92 00 00 	bnd jmp QWORD PTR [rip+0x9215]        # 186c0 <code_340@Base>
    f4ab:	0f 1f 44 00 00       	nop    DWORD PTR [rax+rax*1+0x0]

000000000000f4b0 <code_1255@plt>:
    f4b0:	f3 0f 1e fa          	endbr64 
    f4b4:	f2 ff 25 0d 92 00 00 	bnd jmp QWORD PTR [rip+0x920d]        # 186c8 <code_1255@Base>
    f4bb:	0f 1f 44 00 00       	nop    DWORD PTR [rax+rax*1+0x0]

000000000000f4c0 <code_1218@plt>:
    f4c0:	f3 0f 1e fa          	endbr64 
    f4c4:	f2 ff 25 05 92 00 00 	bnd jmp QWORD PTR [rip+0x9205]        # 186d0 <code_1218@Base>
    f4cb:	0f 1f 44 00 00       	nop    DWORD PTR [rax+rax*1+0x0]

000000000000f4d0 <code_1386@plt>:
    f4d0:	f3 0f 1e fa          	endbr64 
    f4d4:	f2 ff 25 fd 91 00 00 	bnd jmp QWORD PTR [rip+0x91fd]        # 186d8 <code_1386@Base>
    f4db:	0f 1f 44 00 00       	nop    DWORD PTR [rax+rax*1+0x0]

000000000000f4e0 <code_956@plt>:
    f4e0:	f3 0f 1e fa          	endbr64 
    f4e4:	f2 ff 25 f5 91 00 00 	bnd jmp QWORD PTR [rip+0x91f5]        # 186e0 <code_956@Base>
    f4eb:	0f 1f 44 00 00       	nop    DWORD PTR [rax+rax*1+0x0]

000000000000f4f0 <code_946@plt>:
    f4f0:	f3 0f 1e fa          	endbr64 
    f4f4:	f2 ff 25 ed 91 00 00 	bnd jmp QWORD PTR [rip+0x91ed]        # 186e8 <code_946@Base>
    f4fb:	0f 1f 44 00 00       	nop    DWORD PTR [rax+rax*1+0x0]

000000000000f500 <code_993@plt>:
    f500:	f3 0f 1e fa          	endbr64 
    f504:	f2 ff 25 e5 91 00 00 	bnd jmp QWORD PTR [rip+0x91e5]        # 186f0 <code_993@Base>
    f50b:	0f 1f 44 00 00       	nop    DWORD PTR [rax+rax*1+0x0]

000000000000f510 <code_1212@plt>:
    f510:	f3 0f 1e fa          	endbr64 
    f514:	f2 ff 25 dd 91 00 00 	bnd jmp QWORD PTR [rip+0x91dd]        # 186f8 <code_1212@Base>
    f51b:	0f 1f 44 00 00       	nop    DWORD PTR [rax+rax*1+0x0]

000000000000f520 <code_944@plt>:
    f520:	f3 0f 1e fa          	endbr64 
    f524:	f2 ff 25 d5 91 00 00 	bnd jmp QWORD PTR [rip+0x91d5]        # 18700 <code_944@Base>
    f52b:	0f 1f 44 00 00       	nop    DWORD PTR [rax+rax*1+0x0]

000000000000f530 <code_995@plt>:
    f530:	f3 0f 1e fa          	endbr64 
    f534:	f2 ff 25 cd 91 00 00 	bnd jmp QWORD PTR [rip+0x91cd]        # 18708 <code_995@Base>
    f53b:	0f 1f 44 00 00       	nop    DWORD PTR [rax+rax*1+0x0]

000000000000f540 <code_97@plt>:
    f540:	f3 0f 1e fa          	endbr64 
    f544:	f2 ff 25 c5 91 00 00 	bnd jmp QWORD PTR [rip+0x91c5]        # 18710 <code_97@Base>
    f54b:	0f 1f 44 00 00       	nop    DWORD PTR [rax+rax*1+0x0]

000000000000f550 <code_1251@plt>:
    f550:	f3 0f 1e fa          	endbr64 
    f554:	f2 ff 25 bd 91 00 00 	bnd jmp QWORD PTR [rip+0x91bd]        # 18718 <code_1251@Base>
    f55b:	0f 1f 44 00 00       	nop    DWORD PTR [rax+rax*1+0x0]

000000000000f560 <code_1253@plt>:
    f560:	f3 0f 1e fa          	endbr64 
    f564:	f2 ff 25 b5 91 00 00 	bnd jmp QWORD PTR [rip+0x91b5]        # 18720 <code_1253@Base>
    f56b:	0f 1f 44 00 00       	nop    DWORD PTR [rax+rax*1+0x0]

000000000000f570 <code_983@plt>:
    f570:	f3 0f 1e fa          	endbr64 
    f574:	f2 ff 25 ad 91 00 00 	bnd jmp QWORD PTR [rip+0x91ad]        # 18728 <code_983@Base>
    f57b:	0f 1f 44 00 00       	nop    DWORD PTR [rax+rax*1+0x0]

000000000000f580 <code_95@plt>:
    f580:	f3 0f 1e fa          	endbr64 
    f584:	f2 ff 25 a5 91 00 00 	bnd jmp QWORD PTR [rip+0x91a5]        # 18730 <code_95@Base>
    f58b:	0f 1f 44 00 00       	nop    DWORD PTR [rax+rax*1+0x0]

000000000000f590 <code_985@plt>:
    f590:	f3 0f 1e fa          	endbr64 
    f594:	f2 ff 25 9d 91 00 00 	bnd jmp QWORD PTR [rip+0x919d]        # 18738 <code_985@Base>
    f59b:	0f 1f 44 00 00       	nop    DWORD PTR [rax+rax*1+0x0]

000000000000f5a0 <code_144@plt>:
    f5a0:	f3 0f 1e fa          	endbr64 
    f5a4:	f2 ff 25 95 91 00 00 	bnd jmp QWORD PTR [rip+0x9195]        # 18740 <code_144@Base>
    f5ab:	0f 1f 44 00 00       	nop    DWORD PTR [rax+rax*1+0x0]

000000000000f5b0 <code_981@plt>:
    f5b0:	f3 0f 1e fa          	endbr64 
    f5b4:	f2 ff 25 8d 91 00 00 	bnd jmp QWORD PTR [rip+0x918d]        # 18748 <code_981@Base>
    f5bb:	0f 1f 44 00 00       	nop    DWORD PTR [rax+rax*1+0x0]

000000000000f5c0 <code_142@plt>:
    f5c0:	f3 0f 1e fa          	endbr64 
    f5c4:	f2 ff 25 85 91 00 00 	bnd jmp QWORD PTR [rip+0x9185]        # 18750 <code_142@Base>
    f5cb:	0f 1f 44 00 00       	nop    DWORD PTR [rax+rax*1+0x0]

000000000000f5d0 <code_109@plt>:
    f5d0:	f3 0f 1e fa          	endbr64 
    f5d4:	f2 ff 25 7d 91 00 00 	bnd jmp QWORD PTR [rip+0x917d]        # 18758 <code_109@Base>
    f5db:	0f 1f 44 00 00       	nop    DWORD PTR [rax+rax*1+0x0]

000000000000f5e0 <code_590@plt>:
    f5e0:	f3 0f 1e fa          	endbr64 
    f5e4:	f2 ff 25 75 91 00 00 	bnd jmp QWORD PTR [rip+0x9175]        # 18760 <code_590@Base>
    f5eb:	0f 1f 44 00 00       	nop    DWORD PTR [rax+rax*1+0x0]

000000000000f5f0 <code_557@plt>:
    f5f0:	f3 0f 1e fa          	endbr64 
    f5f4:	f2 ff 25 6d 91 00 00 	bnd jmp QWORD PTR [rip+0x916d]        # 18768 <code_557@Base>
    f5fb:	0f 1f 44 00 00       	nop    DWORD PTR [rax+rax*1+0x0]

000000000000f600 <code_518@plt>:
    f600:	f3 0f 1e fa          	endbr64 
    f604:	f2 ff 25 65 91 00 00 	bnd jmp QWORD PTR [rip+0x9165]        # 18770 <code_518@Base>
    f60b:	0f 1f 44 00 00       	nop    DWORD PTR [rax+rax*1+0x0]

000000000000f610 <code_598@plt>:
    f610:	f3 0f 1e fa          	endbr64 
    f614:	f2 ff 25 5d 91 00 00 	bnd jmp QWORD PTR [rip+0x915d]        # 18778 <code_598@Base>
    f61b:	0f 1f 44 00 00       	nop    DWORD PTR [rax+rax*1+0x0]

000000000000f620 <code_185@plt>:
    f620:	f3 0f 1e fa          	endbr64 
    f624:	f2 ff 25 55 91 00 00 	bnd jmp QWORD PTR [rip+0x9155]        # 18780 <code_185@Base>
    f62b:	0f 1f 44 00 00       	nop    DWORD PTR [rax+rax*1+0x0]

000000000000f630 <code_1148@plt>:
    f630:	f3 0f 1e fa          	endbr64 
    f634:	f2 ff 25 4d 91 00 00 	bnd jmp QWORD PTR [rip+0x914d]        # 18788 <code_1148@Base>
    f63b:	0f 1f 44 00 00       	nop    DWORD PTR [rax+rax*1+0x0]

000000000000f640 <code_630@plt>:
    f640:	f3 0f 1e fa          	endbr64 
    f644:	f2 ff 25 45 91 00 00 	bnd jmp QWORD PTR [rip+0x9145]        # 18790 <code_630@Base>
    f64b:	0f 1f 44 00 00       	nop    DWORD PTR [rax+rax*1+0x0]

000000000000f650 <code_183@plt>:
    f650:	f3 0f 1e fa          	endbr64 
    f654:	f2 ff 25 3d 91 00 00 	bnd jmp QWORD PTR [rip+0x913d]        # 18798 <code_183@Base>
    f65b:	0f 1f 44 00 00       	nop    DWORD PTR [rax+rax*1+0x0]

000000000000f660 <code_648@plt>:
    f660:	f3 0f 1e fa          	endbr64 
    f664:	f2 ff 25 35 91 00 00 	bnd jmp QWORD PTR [rip+0x9135]        # 187a0 <code_648@Base>
    f66b:	0f 1f 44 00 00       	nop    DWORD PTR [rax+rax*1+0x0]

000000000000f670 <code_632@plt>:
    f670:	f3 0f 1e fa          	endbr64 
    f674:	f2 ff 25 2d 91 00 00 	bnd jmp QWORD PTR [rip+0x912d]        # 187a8 <code_632@Base>
    f67b:	0f 1f 44 00 00       	nop    DWORD PTR [rax+rax*1+0x0]

000000000000f680 <code_189@plt>:
    f680:	f3 0f 1e fa          	endbr64 
    f684:	f2 ff 25 25 91 00 00 	bnd jmp QWORD PTR [rip+0x9125]        # 187b0 <code_189@Base>
    f68b:	0f 1f 44 00 00       	nop    DWORD PTR [rax+rax*1+0x0]

000000000000f690 <code_634@plt>:
    f690:	f3 0f 1e fa          	endbr64 
    f694:	f2 ff 25 1d 91 00 00 	bnd jmp QWORD PTR [rip+0x911d]        # 187b8 <code_634@Base>
    f69b:	0f 1f 44 00 00       	nop    DWORD PTR [rax+rax*1+0x0]

000000000000f6a0 <code_646@plt>:
    f6a0:	f3 0f 1e fa          	endbr64 
    f6a4:	f2 ff 25 15 91 00 00 	bnd jmp QWORD PTR [rip+0x9115]        # 187c0 <code_646@Base>
    f6ab:	0f 1f 44 00 00       	nop    DWORD PTR [rax+rax*1+0x0]

000000000000f6b0 <code_1189@plt>:
    f6b0:	f3 0f 1e fa          	endbr64 
    f6b4:	f2 ff 25 0d 91 00 00 	bnd jmp QWORD PTR [rip+0x910d]        # 187c8 <code_1189@Base>
    f6bb:	0f 1f 44 00 00       	nop    DWORD PTR [rax+rax*1+0x0]

000000000000f6c0 <code_1090@plt>:
    f6c0:	f3 0f 1e fa          	endbr64 
    f6c4:	f2 ff 25 05 91 00 00 	bnd jmp QWORD PTR [rip+0x9105]        # 187d0 <code_1090@Base>
    f6cb:	0f 1f 44 00 00       	nop    DWORD PTR [rax+rax*1+0x0]

000000000000f6d0 <code_609@plt>:
    f6d0:	f3 0f 1e fa          	endbr64 
    f6d4:	f2 ff 25 fd 90 00 00 	bnd jmp QWORD PTR [rip+0x90fd]        # 187d8 <code_609@Base>
    f6db:	0f 1f 44 00 00       	nop    DWORD PTR [rax+rax*1+0x0]

000000000000f6e0 <code_683@plt>:
    f6e0:	f3 0f 1e fa          	endbr64 
    f6e4:	f2 ff 25 f5 90 00 00 	bnd jmp QWORD PTR [rip+0x90f5]        # 187e0 <code_683@Base>
    f6eb:	0f 1f 44 00 00       	nop    DWORD PTR [rax+rax*1+0x0]

000000000000f6f0 <code_685@plt>:
    f6f0:	f3 0f 1e fa          	endbr64 
    f6f4:	f2 ff 25 ed 90 00 00 	bnd jmp QWORD PTR [rip+0x90ed]        # 187e8 <code_685@Base>
    f6fb:	0f 1f 44 00 00       	nop    DWORD PTR [rax+rax*1+0x0]

000000000000f700 <code_1283@plt>:
    f700:	f3 0f 1e fa          	endbr64 
    f704:	f2 ff 25 e5 90 00 00 	bnd jmp QWORD PTR [rip+0x90e5]        # 187f0 <code_1283@Base>
    f70b:	0f 1f 44 00 00       	nop    DWORD PTR [rax+rax*1+0x0]

000000000000f710 <code_1051@plt>:
    f710:	f3 0f 1e fa          	endbr64 
    f714:	f2 ff 25 dd 90 00 00 	bnd jmp QWORD PTR [rip+0x90dd]        # 187f8 <code_1051@Base>
    f71b:	0f 1f 44 00 00       	nop    DWORD PTR [rax+rax*1+0x0]

000000000000f720 <code_235@plt>:
    f720:	f3 0f 1e fa          	endbr64 
    f724:	f2 ff 25 d5 90 00 00 	bnd jmp QWORD PTR [rip+0x90d5]        # 18800 <code_235@Base>
    f72b:	0f 1f 44 00 00       	nop    DWORD PTR [rax+rax*1+0x0]

000000000000f730 <code_512@plt>:
    f730:	f3 0f 1e fa          	endbr64 
    f734:	f2 ff 25 cd 90 00 00 	bnd jmp QWORD PTR [rip+0x90cd]        # 18808 <code_512@Base>
    f73b:	0f 1f 44 00 00       	nop    DWORD PTR [rax+rax*1+0x0]

000000000000f740 <code_272@plt>:
    f740:	f3 0f 1e fa          	endbr64 
    f744:	f2 ff 25 c5 90 00 00 	bnd jmp QWORD PTR [rip+0x90c5]        # 18810 <code_272@Base>
    f74b:	0f 1f 44 00 00       	nop    DWORD PTR [rax+rax*1+0x0]

000000000000f750 <code_1285@plt>:
    f750:	f3 0f 1e fa          	endbr64 
    f754:	f2 ff 25 bd 90 00 00 	bnd jmp QWORD PTR [rip+0x90bd]        # 18818 <code_1285@Base>
    f75b:	0f 1f 44 00 00       	nop    DWORD PTR [rax+rax*1+0x0]

000000000000f760 <code_101@plt>:
    f760:	f3 0f 1e fa          	endbr64 
    f764:	f2 ff 25 b5 90 00 00 	bnd jmp QWORD PTR [rip+0x90b5]        # 18820 <code_101@Base>
    f76b:	0f 1f 44 00 00       	nop    DWORD PTR [rax+rax*1+0x0]

000000000000f770 <code_551@plt>:
    f770:	f3 0f 1e fa          	endbr64 
    f774:	f2 ff 25 ad 90 00 00 	bnd jmp QWORD PTR [rip+0x90ad]        # 18828 <code_551@Base>
    f77b:	0f 1f 44 00 00       	nop    DWORD PTR [rax+rax*1+0x0]

000000000000f780 <code_710@plt>:
    f780:	f3 0f 1e fa          	endbr64 
    f784:	f2 ff 25 a5 90 00 00 	bnd jmp QWORD PTR [rip+0x90a5]        # 18830 <code_710@Base>
    f78b:	0f 1f 44 00 00       	nop    DWORD PTR [rax+rax*1+0x0]

000000000000f790 <code_748@plt>:
    f790:	f3 0f 1e fa          	endbr64 
    f794:	f2 ff 25 9d 90 00 00 	bnd jmp QWORD PTR [rip+0x909d]        # 18838 <code_748@Base>
    f79b:	0f 1f 44 00 00       	nop    DWORD PTR [rax+rax*1+0x0]

000000000000f7a0 <code_278@plt>:
    f7a0:	f3 0f 1e fa          	endbr64 
    f7a4:	f2 ff 25 95 90 00 00 	bnd jmp QWORD PTR [rip+0x9095]        # 18840 <code_278@Base>
    f7ab:	0f 1f 44 00 00       	nop    DWORD PTR [rax+rax*1+0x0]

000000000000f7b0 <code_239@plt>:
    f7b0:	f3 0f 1e fa          	endbr64 
    f7b4:	f2 ff 25 8d 90 00 00 	bnd jmp QWORD PTR [rip+0x908d]        # 18848 <code_239@Base>
    f7bb:	0f 1f 44 00 00       	nop    DWORD PTR [rax+rax*1+0x0]

000000000000f7c0 <code_712@plt>:
    f7c0:	f3 0f 1e fa          	endbr64 
    f7c4:	f2 ff 25 85 90 00 00 	bnd jmp QWORD PTR [rip+0x9085]        # 18850 <code_712@Base>
    f7cb:	0f 1f 44 00 00       	nop    DWORD PTR [rax+rax*1+0x0]

000000000000f7d0 <code_709@plt>:
    f7d0:	f3 0f 1e fa          	endbr64 
    f7d4:	f2 ff 25 7d 90 00 00 	bnd jmp QWORD PTR [rip+0x907d]        # 18858 <code_709@Base>
    f7db:	0f 1f 44 00 00       	nop    DWORD PTR [rax+rax*1+0x0]

000000000000f7e0 <code_1287@plt>:
    f7e0:	f3 0f 1e fa          	endbr64 
    f7e4:	f2 ff 25 75 90 00 00 	bnd jmp QWORD PTR [rip+0x9075]        # 18860 <code_1287@Base>
    f7eb:	0f 1f 44 00 00       	nop    DWORD PTR [rax+rax*1+0x0]

000000000000f7f0 <code_25@plt>:
    f7f0:	f3 0f 1e fa          	endbr64 
    f7f4:	f2 ff 25 6d 90 00 00 	bnd jmp QWORD PTR [rip+0x906d]        # 18868 <code_25@Base>
    f7fb:	0f 1f 44 00 00       	nop    DWORD PTR [rax+rax*1+0x0]

000000000000f800 <code_744@plt>:
    f800:	f3 0f 1e fa          	endbr64 
    f804:	f2 ff 25 65 90 00 00 	bnd jmp QWORD PTR [rip+0x9065]        # 18870 <code_744@Base>
    f80b:	0f 1f 44 00 00       	nop    DWORD PTR [rax+rax*1+0x0]

000000000000f810 <code_707@plt>:
    f810:	f3 0f 1e fa          	endbr64 
    f814:	f2 ff 25 5d 90 00 00 	bnd jmp QWORD PTR [rip+0x905d]        # 18878 <code_707@Base>
    f81b:	0f 1f 44 00 00       	nop    DWORD PTR [rax+rax*1+0x0]

000000000000f820 <code_1016@plt>:
    f820:	f3 0f 1e fa          	endbr64 
    f824:	f2 ff 25 55 90 00 00 	bnd jmp QWORD PTR [rip+0x9055]        # 18880 <code_1016@Base>
    f82b:	0f 1f 44 00 00       	nop    DWORD PTR [rax+rax*1+0x0]

000000000000f830 <code_1185@plt>:
    f830:	f3 0f 1e fa          	endbr64 
    f834:	f2 ff 25 4d 90 00 00 	bnd jmp QWORD PTR [rip+0x904d]        # 18888 <code_1185@Base>
    f83b:	0f 1f 44 00 00       	nop    DWORD PTR [rax+rax*1+0x0]

000000000000f840 <code_1012@plt>:
    f840:	f3 0f 1e fa          	endbr64 
    f844:	f2 ff 25 45 90 00 00 	bnd jmp QWORD PTR [rip+0x9045]        # 18890 <code_1012@Base>
    f84b:	0f 1f 44 00 00       	nop    DWORD PTR [rax+rax*1+0x0]

000000000000f850 <code_783@plt>:
    f850:	f3 0f 1e fa          	endbr64 
    f854:	f2 ff 25 3d 90 00 00 	bnd jmp QWORD PTR [rip+0x903d]        # 18898 <code_783@Base>
    f85b:	0f 1f 44 00 00       	nop    DWORD PTR [rax+rax*1+0x0]

000000000000f860 <code_396@plt>:
    f860:	f3 0f 1e fa          	endbr64 
    f864:	f2 ff 25 35 90 00 00 	bnd jmp QWORD PTR [rip+0x9035]        # 188a0 <code_396@Base>
    f86b:	0f 1f 44 00 00       	nop    DWORD PTR [rax+rax*1+0x0]

000000000000f870 <code_318@plt>:
    f870:	f3 0f 1e fa          	endbr64 
    f874:	f2 ff 25 2d 90 00 00 	bnd jmp QWORD PTR [rip+0x902d]        # 188a8 <code_318@Base>
    f87b:	0f 1f 44 00 00       	nop    DWORD PTR [rax+rax*1+0x0]

000000000000f880 <code_355@plt>:
    f880:	f3 0f 1e fa          	endbr64 
    f884:	f2 ff 25 25 90 00 00 	bnd jmp QWORD PTR [rip+0x9025]        # 188b0 <code_355@Base>
    f88b:	0f 1f 44 00 00       	nop    DWORD PTR [rax+rax*1+0x0]

000000000000f890 <code_27@plt>:
    f890:	f3 0f 1e fa          	endbr64 
    f894:	f2 ff 25 1d 90 00 00 	bnd jmp QWORD PTR [rip+0x901d]        # 188b8 <code_27@Base>
    f89b:	0f 1f 44 00 00       	nop    DWORD PTR [rax+rax*1+0x0]

000000000000f8a0 <code_1333@plt>:
    f8a0:	f3 0f 1e fa          	endbr64 
    f8a4:	f2 ff 25 15 90 00 00 	bnd jmp QWORD PTR [rip+0x9015]        # 188c0 <code_1333@Base>
    f8ab:	0f 1f 44 00 00       	nop    DWORD PTR [rax+rax*1+0x0]

000000000000f8b0 <code_23@plt>:
    f8b0:	f3 0f 1e fa          	endbr64 
    f8b4:	f2 ff 25 0d 90 00 00 	bnd jmp QWORD PTR [rip+0x900d]        # 188c8 <code_23@Base>
    f8bb:	0f 1f 44 00 00       	nop    DWORD PTR [rax+rax*1+0x0]

000000000000f8c0 <code_1337@plt>:
    f8c0:	f3 0f 1e fa          	endbr64 
    f8c4:	f2 ff 25 05 90 00 00 	bnd jmp QWORD PTR [rip+0x9005]        # 188d0 <code_1337@Base>
    f8cb:	0f 1f 44 00 00       	nop    DWORD PTR [rax+rax*1+0x0]

000000000000f8d0 <code_822@plt>:
    f8d0:	f3 0f 1e fa          	endbr64 
    f8d4:	f2 ff 25 fd 8f 00 00 	bnd jmp QWORD PTR [rip+0x8ffd]        # 188d8 <code_822@Base>
    f8db:	0f 1f 44 00 00       	nop    DWORD PTR [rax+rax*1+0x0]

000000000000f8e0 <code_1370@plt>:
    f8e0:	f3 0f 1e fa          	endbr64 
    f8e4:	f2 ff 25 f5 8f 00 00 	bnd jmp QWORD PTR [rip+0x8ff5]        # 188e0 <code_1370@Base>
    f8eb:	0f 1f 44 00 00       	nop    DWORD PTR [rax+rax*1+0x0]

000000000000f8f0 <code_1335@plt>:
    f8f0:	f3 0f 1e fa          	endbr64 
    f8f4:	f2 ff 25 ed 8f 00 00 	bnd jmp QWORD PTR [rip+0x8fed]        # 188e8 <code_1335@Base>
    f8fb:	0f 1f 44 00 00       	nop    DWORD PTR [rax+rax*1+0x0]

000000000000f900 <code_872@plt>:
    f900:	f3 0f 1e fa          	endbr64 
    f904:	f2 ff 25 e5 8f 00 00 	bnd jmp QWORD PTR [rip+0x8fe5]        # 188f0 <code_872@Base>
    f90b:	0f 1f 44 00 00       	nop    DWORD PTR [rax+rax*1+0x0]

000000000000f910 <code_1374@plt>:
    f910:	f3 0f 1e fa          	endbr64 
    f914:	f2 ff 25 dd 8f 00 00 	bnd jmp QWORD PTR [rip+0x8fdd]        # 188f8 <code_1374@Base>
    f91b:	0f 1f 44 00 00       	nop    DWORD PTR [rax+rax*1+0x0]

000000000000f920 <code_1085@plt>:
    f920:	f3 0f 1e fa          	endbr64 
    f924:	f2 ff 25 d5 8f 00 00 	bnd jmp QWORD PTR [rip+0x8fd5]        # 18900 <code_1085@Base>
    f92b:	0f 1f 44 00 00       	nop    DWORD PTR [rax+rax*1+0x0]

000000000000f930 <code_870@plt>:
    f930:	f3 0f 1e fa          	endbr64 
    f934:	f2 ff 25 cd 8f 00 00 	bnd jmp QWORD PTR [rip+0x8fcd]        # 18908 <code_870@Base>
    f93b:	0f 1f 44 00 00       	nop    DWORD PTR [rax+rax*1+0x0]

000000000000f940 <code_469@plt>:
    f940:	f3 0f 1e fa          	endbr64 
    f944:	f2 ff 25 c5 8f 00 00 	bnd jmp QWORD PTR [rip+0x8fc5]        # 18910 <code_469@Base>
    f94b:	0f 1f 44 00 00       	nop    DWORD PTR [rax+rax*1+0x0]

000000000000f950 <code_467@plt>:
    f950:	f3 0f 1e fa          	endbr64 
    f954:	f2 ff 25 bd 8f 00 00 	bnd jmp QWORD PTR [rip+0x8fbd]        # 18918 <code_467@Base>
    f95b:	0f 1f 44 00 00       	nop    DWORD PTR [rax+rax*1+0x0]

000000000000f960 <code_351@plt>:
    f960:	f3 0f 1e fa          	endbr64 
    f964:	f2 ff 25 b5 8f 00 00 	bnd jmp QWORD PTR [rip+0x8fb5]        # 18920 <code_351@Base>
    f96b:	0f 1f 44 00 00       	nop    DWORD PTR [rax+rax*1+0x0]

000000000000f970 <code_919@plt>:
    f970:	f3 0f 1e fa          	endbr64 
    f974:	f2 ff 25 ad 8f 00 00 	bnd jmp QWORD PTR [rip+0x8fad]        # 18928 <code_919@Base>
    f97b:	0f 1f 44 00 00       	nop    DWORD PTR [rax+rax*1+0x0]

000000000000f980 <code_1413@plt>:
    f980:	f3 0f 1e fa          	endbr64 
    f984:	f2 ff 25 a5 8f 00 00 	bnd jmp QWORD PTR [rip+0x8fa5]        # 18930 <code_1413@Base>
    f98b:	0f 1f 44 00 00       	nop    DWORD PTR [rax+rax*1+0x0]

000000000000f990 <code_920@plt>:
    f990:	f3 0f 1e fa          	endbr64 
    f994:	f2 ff 25 9d 8f 00 00 	bnd jmp QWORD PTR [rip+0x8f9d]        # 18938 <code_920@Base>
    f99b:	0f 1f 44 00 00       	nop    DWORD PTR [rax+rax*1+0x0]

000000000000f9a0 <code_1450@plt>:
    f9a0:	f3 0f 1e fa          	endbr64 
    f9a4:	f2 ff 25 95 8f 00 00 	bnd jmp QWORD PTR [rip+0x8f95]        # 18940 <code_1450@Base>
    f9ab:	0f 1f 44 00 00       	nop    DWORD PTR [rax+rax*1+0x0]

000000000000f9b0 <code_969@plt>:
    f9b0:	f3 0f 1e fa          	endbr64 
    f9b4:	f2 ff 25 8d 8f 00 00 	bnd jmp QWORD PTR [rip+0x8f8d]        # 18948 <code_969@Base>
    f9bb:	0f 1f 44 00 00       	nop    DWORD PTR [rax+rax*1+0x0]

000000000000f9c0 <code_1415@plt>:
    f9c0:	f3 0f 1e fa          	endbr64 
    f9c4:	f2 ff 25 85 8f 00 00 	bnd jmp QWORD PTR [rip+0x8f85]        # 18950 <code_1415@Base>
    f9cb:	0f 1f 44 00 00       	nop    DWORD PTR [rax+rax*1+0x0]

000000000000f9d0 <code_999@plt>:
    f9d0:	f3 0f 1e fa          	endbr64 
    f9d4:	f2 ff 25 7d 8f 00 00 	bnd jmp QWORD PTR [rip+0x8f7d]        # 18958 <code_999@Base>
    f9db:	0f 1f 44 00 00       	nop    DWORD PTR [rax+rax*1+0x0]

000000000000f9e0 <code_952@plt>:
    f9e0:	f3 0f 1e fa          	endbr64 
    f9e4:	f2 ff 25 75 8f 00 00 	bnd jmp QWORD PTR [rip+0x8f75]        # 18960 <code_952@Base>
    f9eb:	0f 1f 44 00 00       	nop    DWORD PTR [rax+rax*1+0x0]

000000000000f9f0 <code_954@plt>:
    f9f0:	f3 0f 1e fa          	endbr64 
    f9f4:	f2 ff 25 6d 8f 00 00 	bnd jmp QWORD PTR [rip+0x8f6d]        # 18968 <code_954@Base>
    f9fb:	0f 1f 44 00 00       	nop    DWORD PTR [rax+rax*1+0x0]

000000000000fa00 <code_117@plt>:
    fa00:	f3 0f 1e fa          	endbr64 
    fa04:	f2 ff 25 65 8f 00 00 	bnd jmp QWORD PTR [rip+0x8f65]        # 18970 <code_117@Base>
    fa0b:	0f 1f 44 00 00       	nop    DWORD PTR [rax+rax*1+0x0]

000000000000fa10 <code_567@plt>:
    fa10:	f3 0f 1e fa          	endbr64 
    fa14:	f2 ff 25 5d 8f 00 00 	bnd jmp QWORD PTR [rip+0x8f5d]        # 18978 <code_567@Base>
    fa1b:	0f 1f 44 00 00       	nop    DWORD PTR [rax+rax*1+0x0]

000000000000fa20 <code_1120@plt>:
    fa20:	f3 0f 1e fa          	endbr64 
    fa24:	f2 ff 25 55 8f 00 00 	bnd jmp QWORD PTR [rip+0x8f55]        # 18980 <code_1120@Base>
    fa2b:	0f 1f 44 00 00       	nop    DWORD PTR [rax+rax*1+0x0]

000000000000fa30 <code_154@plt>:
    fa30:	f3 0f 1e fa          	endbr64 
    fa34:	f2 ff 25 4d 8f 00 00 	bnd jmp QWORD PTR [rip+0x8f4d]        # 18988 <code_154@Base>
    fa3b:	0f 1f 44 00 00       	nop    DWORD PTR [rax+rax*1+0x0]

000000000000fa40 <code_950@plt>:
    fa40:	f3 0f 1e fa          	endbr64 
    fa44:	f2 ff 25 45 8f 00 00 	bnd jmp QWORD PTR [rip+0x8f45]        # 18990 <code_950@Base>
    fa4b:	0f 1f 44 00 00       	nop    DWORD PTR [rax+rax*1+0x0]

000000000000fa50 <code_115@plt>:
    fa50:	f3 0f 1e fa          	endbr64 
    fa54:	f2 ff 25 3d 8f 00 00 	bnd jmp QWORD PTR [rip+0x8f3d]        # 18998 <code_115@Base>
    fa5b:	0f 1f 44 00 00       	nop    DWORD PTR [rax+rax*1+0x0]

000000000000fa60 <code_1454@plt>:
    fa60:	f3 0f 1e fa          	endbr64 
    fa64:	f2 ff 25 35 8f 00 00 	bnd jmp QWORD PTR [rip+0x8f35]        # 189a0 <code_1454@Base>
    fa6b:	0f 1f 44 00 00       	nop    DWORD PTR [rax+rax*1+0x0]

000000000000fa70 <code_1419@plt>:
    fa70:	f3 0f 1e fa          	endbr64 
    fa74:	f2 ff 25 2d 8f 00 00 	bnd jmp QWORD PTR [rip+0x8f2d]        # 189a8 <code_1419@Base>
    fa7b:	0f 1f 44 00 00       	nop    DWORD PTR [rax+rax*1+0x0]

000000000000fa80 <code_152@plt>:
    fa80:	f3 0f 1e fa          	endbr64 
    fa84:	f2 ff 25 25 8f 00 00 	bnd jmp QWORD PTR [rip+0x8f25]        # 189b0 <code_152@Base>
    fa8b:	0f 1f 44 00 00       	nop    DWORD PTR [rax+rax*1+0x0]

000000000000fa90 <code_528@plt>:
    fa90:	f3 0f 1e fa          	endbr64 
    fa94:	f2 ff 25 1d 8f 00 00 	bnd jmp QWORD PTR [rip+0x8f1d]        # 189b8 <code_528@Base>
    fa9b:	0f 1f 44 00 00       	nop    DWORD PTR [rax+rax*1+0x0]

000000000000faa0 <code_563@plt>:
    faa0:	f3 0f 1e fa          	endbr64 
    faa4:	f2 ff 25 15 8f 00 00 	bnd jmp QWORD PTR [rip+0x8f15]        # 189c0 <code_563@Base>
    faab:	0f 1f 44 00 00       	nop    DWORD PTR [rax+rax*1+0x0]

000000000000fab0 <code_113@plt>:
    fab0:	f3 0f 1e fa          	endbr64 
    fab4:	f2 ff 25 0d 8f 00 00 	bnd jmp QWORD PTR [rip+0x8f0d]        # 189c8 <code_113@Base>
    fabb:	0f 1f 44 00 00       	nop    DWORD PTR [rax+rax*1+0x0]

000000000000fac0 <code_111@plt>:
    fac0:	f3 0f 1e fa          	endbr64 
    fac4:	f2 ff 25 05 8f 00 00 	bnd jmp QWORD PTR [rip+0x8f05]        # 189d0 <code_111@Base>
    facb:	0f 1f 44 00 00       	nop    DWORD PTR [rax+rax*1+0x0]

000000000000fad0 <code_561@plt>:
    fad0:	f3 0f 1e fa          	endbr64 
    fad4:	f2 ff 25 fd 8e 00 00 	bnd jmp QWORD PTR [rip+0x8efd]        # 189d8 <code_561@Base>
    fadb:	0f 1f 44 00 00       	nop    DWORD PTR [rax+rax*1+0x0]

000000000000fae0 <code_62@plt>:
    fae0:	f3 0f 1e fa          	endbr64 
    fae4:	f2 ff 25 f5 8e 00 00 	bnd jmp QWORD PTR [rip+0x8ef5]        # 189e0 <code_62@Base>
    faeb:	0f 1f 44 00 00       	nop    DWORD PTR [rax+rax*1+0x0]

000000000000faf0 <code_424@plt>:
    faf0:	f3 0f 1e fa          	endbr64 
    faf4:	f2 ff 25 ed 8e 00 00 	bnd jmp QWORD PTR [rip+0x8eed]        # 189e8 <code_424@Base>
    fafb:	0f 1f 44 00 00       	nop    DWORD PTR [rax+rax*1+0x0]

000000000000fb00 <code_461@plt>:
    fb00:	f3 0f 1e fa          	endbr64 
    fb04:	f2 ff 25 e5 8e 00 00 	bnd jmp QWORD PTR [rip+0x8ee5]        # 189f0 <code_461@Base>
    fb0b:	0f 1f 44 00 00       	nop    DWORD PTR [rax+rax*1+0x0]

000000000000fb10 <code_1351@plt>:
    fb10:	f3 0f 1e fa          	endbr64 
    fb14:	f2 ff 25 dd 8e 00 00 	bnd jmp QWORD PTR [rip+0x8edd]        # 189f8 <code_1351@Base>
    fb1b:	0f 1f 44 00 00       	nop    DWORD PTR [rax+rax*1+0x0]

000000000000fb20 <code_621@plt>:
    fb20:	f3 0f 1e fa          	endbr64 
    fb24:	f2 ff 25 d5 8e 00 00 	bnd jmp QWORD PTR [rip+0x8ed5]        # 18a00 <code_621@Base>
    fb2b:	0f 1f 44 00 00       	nop    DWORD PTR [rax+rax*1+0x0]

000000000000fb30 <code_677@plt>:
    fb30:	f3 0f 1e fa          	endbr64 
    fb34:	f2 ff 25 cd 8e 00 00 	bnd jmp QWORD PTR [rip+0x8ecd]        # 18a08 <code_677@Base>
    fb3b:	0f 1f 44 00 00       	nop    DWORD PTR [rax+rax*1+0x0]

000000000000fb40 <code_158@plt>:
    fb40:	f3 0f 1e fa          	endbr64 
    fb44:	f2 ff 25 c5 8e 00 00 	bnd jmp QWORD PTR [rip+0x8ec5]        # 18a10 <code_158@Base>
    fb4b:	0f 1f 44 00 00       	nop    DWORD PTR [rax+rax*1+0x0]

000000000000fb50 <code_1316@plt>:
    fb50:	f3 0f 1e fa          	endbr64 
    fb54:	f2 ff 25 bd 8e 00 00 	bnd jmp QWORD PTR [rip+0x8ebd]        # 18a18 <code_1316@Base>
    fb5b:	0f 1f 44 00 00       	nop    DWORD PTR [rax+rax*1+0x0]

000000000000fb60 <code_1353@plt>:
    fb60:	f3 0f 1e fa          	endbr64 
    fb64:	f2 ff 25 b5 8e 00 00 	bnd jmp QWORD PTR [rip+0x8eb5]        # 18a20 <code_1353@Base>
    fb6b:	0f 1f 44 00 00       	nop    DWORD PTR [rax+rax*1+0x0]

000000000000fb70 <code_569@plt>:
    fb70:	f3 0f 1e fa          	endbr64 
    fb74:	f2 ff 25 ad 8e 00 00 	bnd jmp QWORD PTR [rip+0x8ead]        # 18a28 <code_569@Base>
    fb7b:	0f 1f 44 00 00       	nop    DWORD PTR [rax+rax*1+0x0]

000000000000fb80 <code_660@plt>:
    fb80:	f3 0f 1e fa          	endbr64 
    fb84:	f2 ff 25 a5 8e 00 00 	bnd jmp QWORD PTR [rip+0x8ea5]        # 18a30 <code_660@Base>
    fb8b:	0f 1f 44 00 00       	nop    DWORD PTR [rax+rax*1+0x0]

000000000000fb90 <code_199@plt>:
    fb90:	f3 0f 1e fa          	endbr64 
    fb94:	f2 ff 25 9d 8e 00 00 	bnd jmp QWORD PTR [rip+0x8e9d]        # 18a38 <code_199@Base>
    fb9b:	0f 1f 44 00 00       	nop    DWORD PTR [rax+rax*1+0x0]

000000000000fba0 <code_1312@plt>:
    fba0:	f3 0f 1e fa          	endbr64 
    fba4:	f2 ff 25 95 8e 00 00 	bnd jmp QWORD PTR [rip+0x8e95]        # 18a40 <code_1312@Base>
    fbab:	0f 1f 44 00 00       	nop    DWORD PTR [rax+rax*1+0x0]

000000000000fbb0 <code_636@plt>:
    fbb0:	f3 0f 1e fa          	endbr64 
    fbb4:	f2 ff 25 8d 8e 00 00 	bnd jmp QWORD PTR [rip+0x8e8d]        # 18a48 <code_636@Base>
    fbbb:	0f 1f 44 00 00       	nop    DWORD PTR [rax+rax*1+0x0]

000000000000fbc0 <code_1176@plt>:
    fbc0:	f3 0f 1e fa          	endbr64 
    fbc4:	f2 ff 25 85 8e 00 00 	bnd jmp QWORD PTR [rip+0x8e85]        # 18a50 <code_1176@Base>
    fbcb:	0f 1f 44 00 00       	nop    DWORD PTR [rax+rax*1+0x0]

000000000000fbd0 <code_1310@plt>:
    fbd0:	f3 0f 1e fa          	endbr64 
    fbd4:	f2 ff 25 7d 8e 00 00 	bnd jmp QWORD PTR [rip+0x8e7d]        # 18a58 <code_1310@Base>
    fbdb:	0f 1f 44 00 00       	nop    DWORD PTR [rax+rax*1+0x0]

000000000000fbe0 <code_262@plt>:
    fbe0:	f3 0f 1e fa          	endbr64 
    fbe4:	f2 ff 25 75 8e 00 00 	bnd jmp QWORD PTR [rip+0x8e75]        # 18a60 <code_262@Base>
    fbeb:	0f 1f 44 00 00       	nop    DWORD PTR [rax+rax*1+0x0]

000000000000fbf0 <code_520@plt>:
    fbf0:	f3 0f 1e fa          	endbr64 
    fbf4:	f2 ff 25 6d 8e 00 00 	bnd jmp QWORD PTR [rip+0x8e6d]        # 18a68 <code_520@Base>
    fbfb:	0f 1f 44 00 00       	nop    DWORD PTR [rax+rax*1+0x0]

000000000000fc00 <code_260@plt>:
    fc00:	f3 0f 1e fa          	endbr64 
    fc04:	f2 ff 25 65 8e 00 00 	bnd jmp QWORD PTR [rip+0x8e65]        # 18a70 <code_260@Base>
    fc0b:	0f 1f 44 00 00       	nop    DWORD PTR [rax+rax*1+0x0]

000000000000fc10 <code_757@plt>:
    fc10:	f3 0f 1e fa          	endbr64 
    fc14:	f2 ff 25 5d 8e 00 00 	bnd jmp QWORD PTR [rip+0x8e5d]        # 18a78 <code_757@Base>
    fc1b:	0f 1f 44 00 00       	nop    DWORD PTR [rax+rax*1+0x0]

000000000000fc20 <code_1027@plt>:
    fc20:	f3 0f 1e fa          	endbr64 
    fc24:	f2 ff 25 55 8e 00 00 	bnd jmp QWORD PTR [rip+0x8e55]        # 18a80 <code_1027@Base>
    fc2b:	0f 1f 44 00 00       	nop    DWORD PTR [rax+rax*1+0x0]

000000000000fc30 <code_1259@plt>:
    fc30:	f3 0f 1e fa          	endbr64 
    fc34:	f2 ff 25 4d 8e 00 00 	bnd jmp QWORD PTR [rip+0x8e4d]        # 18a88 <code_1259@Base>
    fc3b:	0f 1f 44 00 00       	nop    DWORD PTR [rax+rax*1+0x0]

000000000000fc40 <code_1021@plt>:
    fc40:	f3 0f 1e fa          	endbr64 
    fc44:	f2 ff 25 45 8e 00 00 	bnd jmp QWORD PTR [rip+0x8e45]        # 18a90 <code_1021@Base>
    fc4b:	0f 1f 44 00 00       	nop    DWORD PTR [rax+rax*1+0x0]

000000000000fc50 <code_718@plt>:
    fc50:	f3 0f 1e fa          	endbr64 
    fc54:	f2 ff 25 3d 8e 00 00 	bnd jmp QWORD PTR [rip+0x8e3d]        # 18a98 <code_718@Base>
    fc5b:	0f 1f 44 00 00       	nop    DWORD PTR [rax+rax*1+0x0]

000000000000fc60 <code_753@plt>:
    fc60:	f3 0f 1e fa          	endbr64 
    fc64:	f2 ff 25 35 8e 00 00 	bnd jmp QWORD PTR [rip+0x8e35]        # 18aa0 <code_753@Base>
    fc6b:	0f 1f 44 00 00       	nop    DWORD PTR [rax+rax*1+0x0]

000000000000fc70 <code_716@plt>:
    fc70:	f3 0f 1e fa          	endbr64 
    fc74:	f2 ff 25 2d 8e 00 00 	bnd jmp QWORD PTR [rip+0x8e2d]        # 18aa8 <code_716@Base>
    fc7b:	0f 1f 44 00 00       	nop    DWORD PTR [rax+rax*1+0x0]

000000000000fc80 <code_751@plt>:
    fc80:	f3 0f 1e fa          	endbr64 
    fc84:	f2 ff 25 25 8e 00 00 	bnd jmp QWORD PTR [rip+0x8e25]        # 18ab0 <code_751@Base>
    fc8b:	0f 1f 44 00 00       	nop    DWORD PTR [rax+rax*1+0x0]

000000000000fc90 <code_1023@plt>:
    fc90:	f3 0f 1e fa          	endbr64 
    fc94:	f2 ff 25 1d 8e 00 00 	bnd jmp QWORD PTR [rip+0x8e1d]        # 18ab8 <code_1023@Base>
    fc9b:	0f 1f 44 00 00       	nop    DWORD PTR [rax+rax*1+0x0]

000000000000fca0 <code_760@plt>:
    fca0:	f3 0f 1e fa          	endbr64 
    fca4:	f2 ff 25 15 8e 00 00 	bnd jmp QWORD PTR [rip+0x8e15]        # 18ac0 <code_760@Base>
