
./ropshell_new:     file format elf64-x86-64


Disassembly of section .init:

0000000000001000 <_init>:
_init():
    1000:	f3 0f 1e fa          	endbr64 
    1004:	48 83 ec 08          	sub    rsp,0x8
    1008:	48 8b 05 d9 2f 00 00 	mov    rax,QWORD PTR [rip+0x2fd9]        # 3fe8 <__gmon_start__@Base>
    100f:	48 85 c0             	test   rax,rax
    1012:	74 02                	je     1016 <_init+0x16>
    1014:	ff d0                	call   rax
    1016:	48 83 c4 08          	add    rsp,0x8
    101a:	c3                   	ret    

Disassembly of section .plt:

0000000000001020 <.plt>:
    1020:	ff 35 2a 2f 00 00    	push   QWORD PTR [rip+0x2f2a]        # 3f50 <_GLOBAL_OFFSET_TABLE_+0x8>
    1026:	f2 ff 25 2b 2f 00 00 	bnd jmp QWORD PTR [rip+0x2f2b]        # 3f58 <_GLOBAL_OFFSET_TABLE_+0x10>
    102d:	0f 1f 00             	nop    DWORD PTR [rax]
    1030:	f3 0f 1e fa          	endbr64 
    1034:	68 00 00 00 00       	push   0x0
    1039:	f2 e9 e1 ff ff ff    	bnd jmp 1020 <_init+0x20>
    103f:	90                   	nop
    1040:	f3 0f 1e fa          	endbr64 
    1044:	68 01 00 00 00       	push   0x1
    1049:	f2 e9 d1 ff ff ff    	bnd jmp 1020 <_init+0x20>
    104f:	90                   	nop
    1050:	f3 0f 1e fa          	endbr64 
    1054:	68 02 00 00 00       	push   0x2
    1059:	f2 e9 c1 ff ff ff    	bnd jmp 1020 <_init+0x20>
    105f:	90                   	nop
    1060:	f3 0f 1e fa          	endbr64 
    1064:	68 03 00 00 00       	push   0x3
    1069:	f2 e9 b1 ff ff ff    	bnd jmp 1020 <_init+0x20>
    106f:	90                   	nop
    1070:	f3 0f 1e fa          	endbr64 
    1074:	68 04 00 00 00       	push   0x4
    1079:	f2 e9 a1 ff ff ff    	bnd jmp 1020 <_init+0x20>
    107f:	90                   	nop
    1080:	f3 0f 1e fa          	endbr64 
    1084:	68 05 00 00 00       	push   0x5
    1089:	f2 e9 91 ff ff ff    	bnd jmp 1020 <_init+0x20>
    108f:	90                   	nop
    1090:	f3 0f 1e fa          	endbr64 
    1094:	68 06 00 00 00       	push   0x6
    1099:	f2 e9 81 ff ff ff    	bnd jmp 1020 <_init+0x20>
    109f:	90                   	nop
    10a0:	f3 0f 1e fa          	endbr64 
    10a4:	68 07 00 00 00       	push   0x7
    10a9:	f2 e9 71 ff ff ff    	bnd jmp 1020 <_init+0x20>
    10af:	90                   	nop
    10b0:	f3 0f 1e fa          	endbr64 
    10b4:	68 08 00 00 00       	push   0x8
    10b9:	f2 e9 61 ff ff ff    	bnd jmp 1020 <_init+0x20>
    10bf:	90                   	nop
    10c0:	f3 0f 1e fa          	endbr64 
    10c4:	68 09 00 00 00       	push   0x9
    10c9:	f2 e9 51 ff ff ff    	bnd jmp 1020 <_init+0x20>
    10cf:	90                   	nop
    10d0:	f3 0f 1e fa          	endbr64 
    10d4:	68 0a 00 00 00       	push   0xa
    10d9:	f2 e9 41 ff ff ff    	bnd jmp 1020 <_init+0x20>
    10df:	90                   	nop
    10e0:	f3 0f 1e fa          	endbr64 
    10e4:	68 0b 00 00 00       	push   0xb
    10e9:	f2 e9 31 ff ff ff    	bnd jmp 1020 <_init+0x20>
    10ef:	90                   	nop
    10f0:	f3 0f 1e fa          	endbr64 
    10f4:	68 0c 00 00 00       	push   0xc
    10f9:	f2 e9 21 ff ff ff    	bnd jmp 1020 <_init+0x20>
    10ff:	90                   	nop
    1100:	f3 0f 1e fa          	endbr64 
    1104:	68 0d 00 00 00       	push   0xd
    1109:	f2 e9 11 ff ff ff    	bnd jmp 1020 <_init+0x20>
    110f:	90                   	nop
    1110:	f3 0f 1e fa          	endbr64 
    1114:	68 0e 00 00 00       	push   0xe
    1119:	f2 e9 01 ff ff ff    	bnd jmp 1020 <_init+0x20>
    111f:	90                   	nop

Disassembly of section .plt.got:

0000000000001120 <__cxa_finalize@plt>:
    1120:	f3 0f 1e fa          	endbr64 
    1124:	f2 ff 25 cd 2e 00 00 	bnd jmp QWORD PTR [rip+0x2ecd]        # 3ff8 <__cxa_finalize@GLIBC_2.2.5>
    112b:	0f 1f 44 00 00       	nop    DWORD PTR [rax+rax*1+0x0]

Disassembly of section .plt.sec:

0000000000001130 <puts@plt>:
    1130:	f3 0f 1e fa          	endbr64 
    1134:	f2 ff 25 25 2e 00 00 	bnd jmp QWORD PTR [rip+0x2e25]        # 3f60 <puts@GLIBC_2.2.5>
    113b:	0f 1f 44 00 00       	nop    DWORD PTR [rax+rax*1+0x0]

0000000000001140 <mmap@plt>:
    1140:	f3 0f 1e fa          	endbr64 
    1144:	f2 ff 25 1d 2e 00 00 	bnd jmp QWORD PTR [rip+0x2e1d]        # 3f68 <mmap@GLIBC_2.2.5>
    114b:	0f 1f 44 00 00       	nop    DWORD PTR [rax+rax*1+0x0]

0000000000001150 <printf@plt>:
    1150:	f3 0f 1e fa          	endbr64 
    1154:	f2 ff 25 15 2e 00 00 	bnd jmp QWORD PTR [rip+0x2e15]        # 3f70 <printf@GLIBC_2.2.5>
    115b:	0f 1f 44 00 00       	nop    DWORD PTR [rax+rax*1+0x0]

0000000000001160 <memset@plt>:
    1160:	f3 0f 1e fa          	endbr64 
    1164:	f2 ff 25 0d 2e 00 00 	bnd jmp QWORD PTR [rip+0x2e0d]        # 3f78 <memset@GLIBC_2.2.5>
    116b:	0f 1f 44 00 00       	nop    DWORD PTR [rax+rax*1+0x0]

0000000000001170 <alarm@plt>:
    1170:	f3 0f 1e fa          	endbr64 
    1174:	f2 ff 25 05 2e 00 00 	bnd jmp QWORD PTR [rip+0x2e05]        # 3f80 <alarm@GLIBC_2.2.5>
    117b:	0f 1f 44 00 00       	nop    DWORD PTR [rax+rax*1+0x0]

0000000000001180 <read@plt>:
    1180:	f3 0f 1e fa          	endbr64 
    1184:	f2 ff 25 fd 2d 00 00 	bnd jmp QWORD PTR [rip+0x2dfd]        # 3f88 <read@GLIBC_2.2.5>
    118b:	0f 1f 44 00 00       	nop    DWORD PTR [rax+rax*1+0x0]

0000000000001190 <srand@plt>:
    1190:	f3 0f 1e fa          	endbr64 
    1194:	f2 ff 25 f5 2d 00 00 	bnd jmp QWORD PTR [rip+0x2df5]        # 3f90 <srand@GLIBC_2.2.5>
    119b:	0f 1f 44 00 00       	nop    DWORD PTR [rax+rax*1+0x0]

00000000000011a0 <time@plt>:
    11a0:	f3 0f 1e fa          	endbr64 
    11a4:	f2 ff 25 ed 2d 00 00 	bnd jmp QWORD PTR [rip+0x2ded]        # 3f98 <time@GLIBC_2.2.5>
    11ab:	0f 1f 44 00 00       	nop    DWORD PTR [rax+rax*1+0x0]

00000000000011b0 <setvbuf@plt>:
    11b0:	f3 0f 1e fa          	endbr64 
    11b4:	f2 ff 25 e5 2d 00 00 	bnd jmp QWORD PTR [rip+0x2de5]        # 3fa0 <setvbuf@GLIBC_2.2.5>
    11bb:	0f 1f 44 00 00       	nop    DWORD PTR [rax+rax*1+0x0]

00000000000011c0 <waitpid@plt>:
    11c0:	f3 0f 1e fa          	endbr64 
    11c4:	f2 ff 25 dd 2d 00 00 	bnd jmp QWORD PTR [rip+0x2ddd]        # 3fa8 <waitpid@GLIBC_2.2.5>
    11cb:	0f 1f 44 00 00       	nop    DWORD PTR [rax+rax*1+0x0]

00000000000011d0 <mprotect@plt>:
    11d0:	f3 0f 1e fa          	endbr64 
    11d4:	f2 ff 25 d5 2d 00 00 	bnd jmp QWORD PTR [rip+0x2dd5]        # 3fb0 <mprotect@GLIBC_2.2.5>
    11db:	0f 1f 44 00 00       	nop    DWORD PTR [rax+rax*1+0x0]

00000000000011e0 <perror@plt>:
    11e0:	f3 0f 1e fa          	endbr64 
    11e4:	f2 ff 25 cd 2d 00 00 	bnd jmp QWORD PTR [rip+0x2dcd]        # 3fb8 <perror@GLIBC_2.2.5>
    11eb:	0f 1f 44 00 00       	nop    DWORD PTR [rax+rax*1+0x0]

00000000000011f0 <exit@plt>:
    11f0:	f3 0f 1e fa          	endbr64 
    11f4:	f2 ff 25 c5 2d 00 00 	bnd jmp QWORD PTR [rip+0x2dc5]        # 3fc0 <exit@GLIBC_2.2.5>
    11fb:	0f 1f 44 00 00       	nop    DWORD PTR [rax+rax*1+0x0]

0000000000001200 <fork@plt>:
    1200:	f3 0f 1e fa          	endbr64 
    1204:	f2 ff 25 bd 2d 00 00 	bnd jmp QWORD PTR [rip+0x2dbd]        # 3fc8 <fork@GLIBC_2.2.5>
    120b:	0f 1f 44 00 00       	nop    DWORD PTR [rax+rax*1+0x0]

0000000000001210 <rand@plt>:
    1210:	f3 0f 1e fa          	endbr64 
    1214:	f2 ff 25 b5 2d 00 00 	bnd jmp QWORD PTR [rip+0x2db5]        # 3fd0 <rand@GLIBC_2.2.5>
    121b:	0f 1f 44 00 00       	nop    DWORD PTR [rax+rax*1+0x0]

Disassembly of section .text:

0000000000001220 <_start>:
_start():
    1220:	f3 0f 1e fa          	endbr64 
    1224:	31 ed                	xor    ebp,ebp
    1226:	49 89 d1             	mov    r9,rdx
    1229:	5e                   	pop    rsi
    122a:	48 89 e2             	mov    rdx,rsp
    122d:	48 83 e4 f0          	and    rsp,0xfffffffffffffff0
    1231:	50                   	push   rax
    1232:	54                   	push   rsp
    1233:	45 31 c0             	xor    r8d,r8d
    1236:	31 c9                	xor    ecx,ecx
    1238:	48 8d 3d 90 01 00 00 	lea    rdi,[rip+0x190]        # 13cf <main>
    123f:	ff 15 93 2d 00 00    	call   QWORD PTR [rip+0x2d93]        # 3fd8 <__libc_start_main@GLIBC_2.34>
    1245:	f4                   	hlt    
    1246:	66 2e 0f 1f 84 00 00 	cs nop WORD PTR [rax+rax*1+0x0]
    124d:	00 00 00 

0000000000001250 <deregister_tm_clones>:
deregister_tm_clones():
    1250:	48 8d 3d b9 2d 00 00 	lea    rdi,[rip+0x2db9]        # 4010 <__TMC_END__>
    1257:	48 8d 05 b2 2d 00 00 	lea    rax,[rip+0x2db2]        # 4010 <__TMC_END__>
    125e:	48 39 f8             	cmp    rax,rdi
    1261:	74 15                	je     1278 <deregister_tm_clones+0x28>
    1263:	48 8b 05 76 2d 00 00 	mov    rax,QWORD PTR [rip+0x2d76]        # 3fe0 <_ITM_deregisterTMCloneTable@Base>
    126a:	48 85 c0             	test   rax,rax
    126d:	74 09                	je     1278 <deregister_tm_clones+0x28>
    126f:	ff e0                	jmp    rax
    1271:	0f 1f 80 00 00 00 00 	nop    DWORD PTR [rax+0x0]
    1278:	c3                   	ret    
    1279:	0f 1f 80 00 00 00 00 	nop    DWORD PTR [rax+0x0]

0000000000001280 <register_tm_clones>:
register_tm_clones():
    1280:	48 8d 3d 89 2d 00 00 	lea    rdi,[rip+0x2d89]        # 4010 <__TMC_END__>
    1287:	48 8d 35 82 2d 00 00 	lea    rsi,[rip+0x2d82]        # 4010 <__TMC_END__>
    128e:	48 29 fe             	sub    rsi,rdi
    1291:	48 89 f0             	mov    rax,rsi
    1294:	48 c1 ee 3f          	shr    rsi,0x3f
    1298:	48 c1 f8 03          	sar    rax,0x3
    129c:	48 01 c6             	add    rsi,rax
    129f:	48 d1 fe             	sar    rsi,1
    12a2:	74 14                	je     12b8 <register_tm_clones+0x38>
    12a4:	48 8b 05 45 2d 00 00 	mov    rax,QWORD PTR [rip+0x2d45]        # 3ff0 <_ITM_registerTMCloneTable@Base>
    12ab:	48 85 c0             	test   rax,rax
    12ae:	74 08                	je     12b8 <register_tm_clones+0x38>
    12b0:	ff e0                	jmp    rax
    12b2:	66 0f 1f 44 00 00    	nop    WORD PTR [rax+rax*1+0x0]
    12b8:	c3                   	ret    
    12b9:	0f 1f 80 00 00 00 00 	nop    DWORD PTR [rax+0x0]

00000000000012c0 <__do_global_dtors_aux>:
__do_global_dtors_aux():
    12c0:	f3 0f 1e fa          	endbr64 
    12c4:	80 3d 7d 2d 00 00 00 	cmp    BYTE PTR [rip+0x2d7d],0x0        # 4048 <completed.0>
    12cb:	75 2b                	jne    12f8 <__do_global_dtors_aux+0x38>
    12cd:	55                   	push   rbp
    12ce:	48 83 3d 22 2d 00 00 	cmp    QWORD PTR [rip+0x2d22],0x0        # 3ff8 <__cxa_finalize@GLIBC_2.2.5>
    12d5:	00 
    12d6:	48 89 e5             	mov    rbp,rsp
    12d9:	74 0c                	je     12e7 <__do_global_dtors_aux+0x27>
    12db:	48 8b 3d 26 2d 00 00 	mov    rdi,QWORD PTR [rip+0x2d26]        # 4008 <__dso_handle>
    12e2:	e8 39 fe ff ff       	call   1120 <__cxa_finalize@plt>
    12e7:	e8 64 ff ff ff       	call   1250 <deregister_tm_clones>
    12ec:	c6 05 55 2d 00 00 01 	mov    BYTE PTR [rip+0x2d55],0x1        # 4048 <completed.0>
    12f3:	5d                   	pop    rbp
    12f4:	c3                   	ret    
    12f5:	0f 1f 00             	nop    DWORD PTR [rax]
    12f8:	c3                   	ret    
    12f9:	0f 1f 80 00 00 00 00 	nop    DWORD PTR [rax+0x0]

0000000000001300 <frame_dummy>:
frame_dummy():
    1300:	f3 0f 1e fa          	endbr64 
    1304:	e9 77 ff ff ff       	jmp    1280 <register_tm_clones>

0000000000001309 <shell>:
shell():
/home/michelle/lab7/./ropshell.c:21
    1309:	f3 0f 1e fa          	endbr64 
    130d:	55                   	push   rbp
    130e:	48 89 e5             	mov    rbp,rsp
    1311:	48 83 ec 20          	sub    rsp,0x20
    1315:	48 89 7d e8          	mov    QWORD PTR [rbp-0x18],rdi
    1319:	89 75 e4             	mov    DWORD PTR [rbp-0x1c],esi
/home/michelle/lab7/./ropshell.c:24
    131c:	bf 3c 00 00 00       	mov    edi,0x3c
    1321:	e8 4a fe ff ff       	call   1170 <alarm@plt>
/home/michelle/lab7/./ropshell.c:26
    1326:	48 8d 05 db 0c 00 00 	lea    rax,[rip+0xcdb]        # 2008 <_IO_stdin_used+0x8>
    132d:	48 89 c7             	mov    rdi,rax
    1330:	b8 00 00 00 00       	mov    eax,0x0
    1335:	e8 16 fe ff ff       	call   1150 <printf@plt>
/home/michelle/lab7/./ropshell.c:28
    133a:	48 8b 45 e8          	mov    rax,QWORD PTR [rbp-0x18]
    133e:	48 05 00 10 00 00    	add    rax,0x1000
    1344:	ba 00 10 00 00       	mov    edx,0x1000
    1349:	48 89 c6             	mov    rsi,rax
    134c:	bf 00 00 00 00       	mov    edi,0x0
    1351:	e8 2a fe ff ff       	call   1180 <read@plt>
    1356:	89 45 fc             	mov    DWORD PTR [rbp-0x4],eax
    1359:	83 7d fc 00          	cmp    DWORD PTR [rbp-0x4],0x0
    135d:	79 19                	jns    1378 <shell+0x6f>
/home/michelle/lab7/./ropshell.c:28 (discriminator 1)
    135f:	48 8d 05 ab 0c 00 00 	lea    rax,[rip+0xcab]        # 2011 <_IO_stdin_used+0x11>
    1366:	48 89 c7             	mov    rdi,rax
    1369:	e8 72 fe ff ff       	call   11e0 <perror@plt>
    136e:	bf ff ff ff ff       	mov    edi,0xffffffff
    1373:	e8 78 fe ff ff       	call   11f0 <exit@plt>
/home/michelle/lab7/./ropshell.c:29
    1378:	8b 45 fc             	mov    eax,DWORD PTR [rbp-0x4]
    137b:	89 c6                	mov    esi,eax
    137d:	48 8d 05 92 0c 00 00 	lea    rax,[rip+0xc92]        # 2016 <_IO_stdin_used+0x16>
    1384:	48 89 c7             	mov    rdi,rax
    1387:	b8 00 00 00 00       	mov    eax,0x0
    138c:	e8 bf fd ff ff       	call   1150 <printf@plt>
/home/michelle/lab7/./ropshell.c:50
    1391:	48 8b 45 e8          	mov    rax,QWORD PTR [rbp-0x18]
    1395:	48 05 00 10 00 00    	add    rax,0x1000
/home/michelle/lab7/./ropshell.c:31
    139b:	48 89 c4             	mov    rsp,rax
    139e:	48 31 c0             	xor    rax,rax
    13a1:	48 31 db             	xor    rbx,rbx
    13a4:	48 31 c9             	xor    rcx,rcx
    13a7:	48 31 d2             	xor    rdx,rdx
    13aa:	48 31 ff             	xor    rdi,rdi
    13ad:	48 31 f6             	xor    rsi,rsi
    13b0:	48 31 ed             	xor    rbp,rbp
    13b3:	4d 31 c0             	xor    r8,r8
    13b6:	4d 31 c9             	xor    r9,r9
    13b9:	4d 31 d2             	xor    r10,r10
    13bc:	4d 31 db             	xor    r11,r11
    13bf:	4d 31 e4             	xor    r12,r12
    13c2:	4d 31 ed             	xor    r13,r13
    13c5:	4d 31 f6             	xor    r14,r14
    13c8:	4d 31 ff             	xor    r15,r15
    13cb:	c3                   	ret    
/home/michelle/lab7/./ropshell.c:52
    13cc:	90                   	nop
    13cd:	c9                   	leave  
    13ce:	c3                   	ret    

00000000000013cf <main>:
main():
/home/michelle/lab7/./ropshell.c:54
    13cf:	f3 0f 1e fa          	endbr64 
    13d3:	55                   	push   rbp
    13d4:	48 89 e5             	mov    rbp,rsp
    13d7:	53                   	push   rbx
    13d8:	48 83 ec 38          	sub    rsp,0x38
/home/michelle/lab7/./ropshell.c:59
    13dc:	48 8b 05 4d 2c 00 00 	mov    rax,QWORD PTR [rip+0x2c4d]        # 4030 <stdin@GLIBC_2.2.5>
    13e3:	b9 00 00 00 00       	mov    ecx,0x0
    13e8:	ba 02 00 00 00       	mov    edx,0x2
    13ed:	be 00 00 00 00       	mov    esi,0x0
    13f2:	48 89 c7             	mov    rdi,rax
    13f5:	e8 b6 fd ff ff       	call   11b0 <setvbuf@plt>
/home/michelle/lab7/./ropshell.c:60
    13fa:	48 8b 05 1f 2c 00 00 	mov    rax,QWORD PTR [rip+0x2c1f]        # 4020 <stdout@GLIBC_2.2.5>
    1401:	b9 00 00 00 00       	mov    ecx,0x0
    1406:	ba 02 00 00 00       	mov    edx,0x2
    140b:	be 00 00 00 00       	mov    esi,0x0
    1410:	48 89 c7             	mov    rdi,rax
    1413:	e8 98 fd ff ff       	call   11b0 <setvbuf@plt>
/home/michelle/lab7/./ropshell.c:61
    1418:	48 8b 05 21 2c 00 00 	mov    rax,QWORD PTR [rip+0x2c21]        # 4040 <stderr@GLIBC_2.2.5>
    141f:	b9 00 00 00 00       	mov    ecx,0x0
    1424:	ba 02 00 00 00       	mov    edx,0x2
    1429:	be 00 00 00 00       	mov    esi,0x0
    142e:	48 89 c7             	mov    rdi,rax
    1431:	e8 7a fd ff ff       	call   11b0 <setvbuf@plt>
/home/michelle/lab7/./ropshell.c:63
    1436:	41 b9 00 00 00 00    	mov    r9d,0x0
    143c:	41 b8 ff ff ff ff    	mov    r8d,0xffffffff
    1442:	b9 22 00 00 00       	mov    ecx,0x22
    1447:	ba 07 00 00 00       	mov    edx,0x7
    144c:	be 00 00 0a 00       	mov    esi,0xa0000
    1451:	bf 00 00 00 00       	mov    edi,0x0
    1456:	e8 e5 fc ff ff       	call   1140 <mmap@plt>
    145b:	48 89 45 e0          	mov    QWORD PTR [rbp-0x20],rax
/home/michelle/lab7/./ropshell.c:65
    145f:	48 83 7d e0 ff       	cmp    QWORD PTR [rbp-0x20],0xffffffffffffffff
    1464:	75 19                	jne    147f <main+0xb0>
/home/michelle/lab7/./ropshell.c:65 (discriminator 1)
    1466:	48 8d 05 c7 0b 00 00 	lea    rax,[rip+0xbc7]        # 2034 <_IO_stdin_used+0x34>
    146d:	48 89 c7             	mov    rdi,rax
    1470:	e8 6b fd ff ff       	call   11e0 <perror@plt>
    1475:	bf ff ff ff ff       	mov    edi,0xffffffff
    147a:	e8 71 fd ff ff       	call   11f0 <exit@plt>
/home/michelle/lab7/./ropshell.c:66
    147f:	48 8b 45 e0          	mov    rax,QWORD PTR [rbp-0x20]
    1483:	48 89 45 d8          	mov    QWORD PTR [rbp-0x28],rax
/home/michelle/lab7/./ropshell.c:68
    1487:	41 b9 00 00 00 00    	mov    r9d,0x0
    148d:	41 b8 ff ff ff ff    	mov    r8d,0xffffffff
    1493:	b9 22 00 00 00       	mov    ecx,0x22
    1498:	ba 03 00 00 00       	mov    edx,0x3
    149d:	be 00 20 00 00       	mov    esi,0x2000
    14a2:	bf 00 00 00 00       	mov    edi,0x0
    14a7:	e8 94 fc ff ff       	call   1140 <mmap@plt>
    14ac:	48 89 45 d0          	mov    QWORD PTR [rbp-0x30],rax
/home/michelle/lab7/./ropshell.c:70
    14b0:	48 83 7d d0 ff       	cmp    QWORD PTR [rbp-0x30],0xffffffffffffffff
    14b5:	75 19                	jne    14d0 <main+0x101>
/home/michelle/lab7/./ropshell.c:70 (discriminator 1)
    14b7:	48 8d 05 76 0b 00 00 	lea    rax,[rip+0xb76]        # 2034 <_IO_stdin_used+0x34>
    14be:	48 89 c7             	mov    rdi,rax
    14c1:	e8 1a fd ff ff       	call   11e0 <perror@plt>
    14c6:	bf ff ff ff ff       	mov    edi,0xffffffff
    14cb:	e8 20 fd ff ff       	call   11f0 <exit@plt>
/home/michelle/lab7/./ropshell.c:72
    14d0:	48 8b 45 d0          	mov    rax,QWORD PTR [rbp-0x30]
    14d4:	ba 00 20 00 00       	mov    edx,0x2000
    14d9:	be 00 00 00 00       	mov    esi,0x0
    14de:	48 89 c7             	mov    rdi,rax
    14e1:	e8 7a fc ff ff       	call   1160 <memset@plt>
/home/michelle/lab7/./ropshell.c:73
    14e6:	bf 00 00 00 00       	mov    edi,0x0
    14eb:	e8 b0 fc ff ff       	call   11a0 <time@plt>
    14f0:	48 89 45 c8          	mov    QWORD PTR [rbp-0x38],rax
/home/michelle/lab7/./ropshell.c:74
    14f4:	48 8b 45 c8          	mov    rax,QWORD PTR [rbp-0x38]
    14f8:	89 c7                	mov    edi,eax
    14fa:	e8 91 fc ff ff       	call   1190 <srand@plt>
/home/michelle/lab7/./ropshell.c:75
    14ff:	48 c7 45 e8 00 00 00 	mov    QWORD PTR [rbp-0x18],0x0
    1506:	00 
    1507:	eb 30                	jmp    1539 <main+0x16a>
/home/michelle/lab7/./ropshell.c:76 (discriminator 3)
    1509:	e8 02 fd ff ff       	call   1210 <rand@plt>
    150e:	c1 e0 10             	shl    eax,0x10
    1511:	89 c3                	mov    ebx,eax
    1513:	e8 f8 fc ff ff       	call   1210 <rand@plt>
    1518:	0f b7 c0             	movzx  eax,ax
    151b:	09 c3                	or     ebx,eax
    151d:	89 da                	mov    edx,ebx
    151f:	48 8b 45 e8          	mov    rax,QWORD PTR [rbp-0x18]
    1523:	48 8d 0c 85 00 00 00 	lea    rcx,[rax*4+0x0]
    152a:	00 
    152b:	48 8b 45 d8          	mov    rax,QWORD PTR [rbp-0x28]
    152f:	48 01 c8             	add    rax,rcx
    1532:	89 10                	mov    DWORD PTR [rax],edx
/home/michelle/lab7/./ropshell.c:75 (discriminator 3)
    1534:	48 83 45 e8 01       	add    QWORD PTR [rbp-0x18],0x1
/home/michelle/lab7/./ropshell.c:75 (discriminator 1)
    1539:	48 81 7d e8 ff 7f 02 	cmp    QWORD PTR [rbp-0x18],0x27fff
    1540:	00 
    1541:	7e c6                	jle    1509 <main+0x13a>
/home/michelle/lab7/./ropshell.c:78
    1543:	e8 c8 fc ff ff       	call   1210 <rand@plt>
    1548:	48 63 d0             	movsxd rdx,eax
    154b:	48 69 d2 5d 8f 66 66 	imul   rdx,rdx,0x66668f5d
    1552:	48 c1 ea 20          	shr    rdx,0x20
    1556:	c1 fa 10             	sar    edx,0x10
    1559:	89 c1                	mov    ecx,eax
    155b:	c1 f9 1f             	sar    ecx,0x1f
    155e:	29 ca                	sub    edx,ecx
    1560:	69 ca ff 7f 02 00    	imul   ecx,edx,0x27fff
    1566:	29 c8                	sub    eax,ecx
    1568:	89 c2                	mov    edx,eax
    156a:	48 63 c2             	movsxd rax,edx
    156d:	48 8d 14 85 00 00 00 	lea    rdx,[rax*4+0x0]
    1574:	00 
    1575:	48 8b 45 d8          	mov    rax,QWORD PTR [rbp-0x28]
    1579:	48 01 d0             	add    rax,rdx
    157c:	c7 00 0f 05 c3 00    	mov    DWORD PTR [rax],0xc3050f
/home/michelle/lab7/./ropshell.c:79
    1582:	48 8b 45 e0          	mov    rax,QWORD PTR [rbp-0x20]
    1586:	ba 05 00 00 00       	mov    edx,0x5
    158b:	be 00 00 0a 00       	mov    esi,0xa0000
    1590:	48 89 c7             	mov    rdi,rax
    1593:	e8 38 fc ff ff       	call   11d0 <mprotect@plt>
    1598:	85 c0                	test   eax,eax
    159a:	79 19                	jns    15b5 <main+0x1e6>
/home/michelle/lab7/./ropshell.c:79 (discriminator 1)
    159c:	48 8d 05 96 0a 00 00 	lea    rax,[rip+0xa96]        # 2039 <_IO_stdin_used+0x39>
    15a3:	48 89 c7             	mov    rdi,rax
    15a6:	e8 35 fc ff ff       	call   11e0 <perror@plt>
    15ab:	bf ff ff ff ff       	mov    edi,0xffffffff
    15b0:	e8 3b fc ff ff       	call   11f0 <exit@plt>
/home/michelle/lab7/./ropshell.c:82
    15b5:	48 8b 45 c8          	mov    rax,QWORD PTR [rbp-0x38]
    15b9:	48 89 c6             	mov    rsi,rax
    15bc:	48 8d 05 7f 0a 00 00 	lea    rax,[rip+0xa7f]        # 2042 <_IO_stdin_used+0x42>
    15c3:	48 89 c7             	mov    rdi,rax
    15c6:	b8 00 00 00 00       	mov    eax,0x0
    15cb:	e8 80 fb ff ff       	call   1150 <printf@plt>
/home/michelle/lab7/./ropshell.c:83
    15d0:	48 8b 45 e0          	mov    rax,QWORD PTR [rbp-0x20]
    15d4:	48 89 c6             	mov    rsi,rax
    15d7:	48 8d 05 7a 0a 00 00 	lea    rax,[rip+0xa7a]        # 2058 <_IO_stdin_used+0x58>
    15de:	48 89 c7             	mov    rdi,rax
    15e1:	b8 00 00 00 00       	mov    eax,0x0
    15e6:	e8 65 fb ff ff       	call   1150 <printf@plt>
/home/michelle/lab7/./ropshell.c:84
    15eb:	be 3c 00 00 00       	mov    esi,0x3c
    15f0:	48 8d 05 89 0a 00 00 	lea    rax,[rip+0xa89]        # 2080 <_IO_stdin_used+0x80>
    15f7:	48 89 c7             	mov    rdi,rax
    15fa:	b8 00 00 00 00       	mov    eax,0x0
    15ff:	e8 4c fb ff ff       	call   1150 <printf@plt>
/home/michelle/lab7/./ropshell.c:86
    1604:	bf 3c 00 00 00       	mov    edi,0x3c
    1609:	e8 62 fb ff ff       	call   1170 <alarm@plt>
/home/michelle/lab7/./ropshell.c:89
    160e:	e8 ed fb ff ff       	call   1200 <fork@plt>
    1613:	89 45 c4             	mov    DWORD PTR [rbp-0x3c],eax
/home/michelle/lab7/./ropshell.c:90
    1616:	83 7d c4 00          	cmp    DWORD PTR [rbp-0x3c],0x0
    161a:	75 1b                	jne    1637 <main+0x268>
/home/michelle/lab7/./ropshell.c:91
    161c:	48 8b 45 d0          	mov    rax,QWORD PTR [rbp-0x30]
    1620:	be 00 20 00 00       	mov    esi,0x2000
    1625:	48 89 c7             	mov    rdi,rax
    1628:	e8 dc fc ff ff       	call   1309 <shell>
/home/michelle/lab7/./ropshell.c:92
    162d:	bf 00 00 00 00       	mov    edi,0x0
    1632:	e8 b9 fb ff ff       	call   11f0 <exit@plt>
/home/michelle/lab7/./ropshell.c:94
    1637:	48 8d 4d c0          	lea    rcx,[rbp-0x40]
    163b:	8b 45 c4             	mov    eax,DWORD PTR [rbp-0x3c]
    163e:	ba 00 00 00 00       	mov    edx,0x0
    1643:	48 89 ce             	mov    rsi,rcx
    1646:	89 c7                	mov    edi,eax
    1648:	e8 73 fb ff ff       	call   11c0 <waitpid@plt>
    164d:	85 c0                	test   eax,eax
    164f:	79 07                	jns    1658 <main+0x289>
/home/michelle/lab7/./ropshell.c:105
    1651:	b8 00 00 00 00       	mov    eax,0x0
    1656:	eb 6f                	jmp    16c7 <main+0x2f8>
/home/michelle/lab7/./ropshell.c:96
    1658:	8b 45 c0             	mov    eax,DWORD PTR [rbp-0x40]
    165b:	83 e0 7f             	and    eax,0x7f
    165e:	85 c0                	test   eax,eax
    1660:	75 21                	jne    1683 <main+0x2b4>
/home/michelle/lab7/./ropshell.c:97
    1662:	8b 45 c0             	mov    eax,DWORD PTR [rbp-0x40]
    1665:	c1 f8 08             	sar    eax,0x8
    1668:	0f b6 c0             	movzx  eax,al
    166b:	89 c6                	mov    esi,eax
    166d:	48 8d 05 34 0a 00 00 	lea    rax,[rip+0xa34]        # 20a8 <_IO_stdin_used+0xa8>
    1674:	48 89 c7             	mov    rdi,rax
    1677:	b8 00 00 00 00       	mov    eax,0x0
    167c:	e8 cf fa ff ff       	call   1150 <printf@plt>
    1681:	eb 8b                	jmp    160e <main+0x23f>
/home/michelle/lab7/./ropshell.c:98
    1683:	8b 45 c0             	mov    eax,DWORD PTR [rbp-0x40]
    1686:	83 e0 7f             	and    eax,0x7f
    1689:	83 c0 01             	add    eax,0x1
    168c:	d0 f8                	sar    al,1
    168e:	84 c0                	test   al,al
    1690:	7e 21                	jle    16b3 <main+0x2e4>
/home/michelle/lab7/./ropshell.c:99
    1692:	8b 45 c0             	mov    eax,DWORD PTR [rbp-0x40]
    1695:	83 e0 7f             	and    eax,0x7f
    1698:	89 c6                	mov    esi,eax
    169a:	48 8d 05 2f 0a 00 00 	lea    rax,[rip+0xa2f]        # 20d0 <_IO_stdin_used+0xd0>
    16a1:	48 89 c7             	mov    rdi,rax
    16a4:	b8 00 00 00 00       	mov    eax,0x0
    16a9:	e8 a2 fa ff ff       	call   1150 <printf@plt>
    16ae:	e9 5b ff ff ff       	jmp    160e <main+0x23f>
/home/michelle/lab7/./ropshell.c:101
    16b3:	48 8d 05 3e 0a 00 00 	lea    rax,[rip+0xa3e]        # 20f8 <_IO_stdin_used+0xf8>
    16ba:	48 89 c7             	mov    rdi,rax
    16bd:	e8 6e fa ff ff       	call   1130 <puts@plt>
/home/michelle/lab7/./ropshell.c:88
    16c2:	e9 47 ff ff ff       	jmp    160e <main+0x23f>
/home/michelle/lab7/./ropshell.c:106
    16c7:	48 8b 5d f8          	mov    rbx,QWORD PTR [rbp-0x8]
    16cb:	c9                   	leave  
    16cc:	c3                   	ret    

Disassembly of section .fini:

00000000000016d0 <_fini>:
_fini():
    16d0:	f3 0f 1e fa          	endbr64 
    16d4:	48 83 ec 08          	sub    rsp,0x8
    16d8:	48 83 c4 08          	add    rsp,0x8
    16dc:	c3                   	ret    
