
./socket_test:     file format elf64-x86-64


Disassembly of section .init:

0000000000001000 <_init>:
_init():
    1000:	f3 0f 1e fa          	endbr64 
    1004:	48 83 ec 08          	sub    rsp,0x8
    1008:	48 8b 05 d9 2f 00 00 	mov    rax,QWORD PTR [rip+0x2fd9]        # 3fe8 <__gmon_start__@Base>
    100f:	48 85 c0             	test   rax,rax
    1012:	74 02                	je     1016 <_init+0x16>
    1014:	ff d0                	call   rax
    1016:	48 83 c4 08          	add    rsp,0x8
    101a:	c3                   	ret    

Disassembly of section .plt:

0000000000001020 <.plt>:
    1020:	ff 35 62 2f 00 00    	push   QWORD PTR [rip+0x2f62]        # 3f88 <_GLOBAL_OFFSET_TABLE_+0x8>
    1026:	f2 ff 25 63 2f 00 00 	bnd jmp QWORD PTR [rip+0x2f63]        # 3f90 <_GLOBAL_OFFSET_TABLE_+0x10>
    102d:	0f 1f 00             	nop    DWORD PTR [rax]
    1030:	f3 0f 1e fa          	endbr64 
    1034:	68 00 00 00 00       	push   0x0
    1039:	f2 e9 e1 ff ff ff    	bnd jmp 1020 <_init+0x20>
    103f:	90                   	nop
    1040:	f3 0f 1e fa          	endbr64 
    1044:	68 01 00 00 00       	push   0x1
    1049:	f2 e9 d1 ff ff ff    	bnd jmp 1020 <_init+0x20>
    104f:	90                   	nop
    1050:	f3 0f 1e fa          	endbr64 
    1054:	68 02 00 00 00       	push   0x2
    1059:	f2 e9 c1 ff ff ff    	bnd jmp 1020 <_init+0x20>
    105f:	90                   	nop
    1060:	f3 0f 1e fa          	endbr64 
    1064:	68 03 00 00 00       	push   0x3
    1069:	f2 e9 b1 ff ff ff    	bnd jmp 1020 <_init+0x20>
    106f:	90                   	nop
    1070:	f3 0f 1e fa          	endbr64 
    1074:	68 04 00 00 00       	push   0x4
    1079:	f2 e9 a1 ff ff ff    	bnd jmp 1020 <_init+0x20>
    107f:	90                   	nop
    1080:	f3 0f 1e fa          	endbr64 
    1084:	68 05 00 00 00       	push   0x5
    1089:	f2 e9 91 ff ff ff    	bnd jmp 1020 <_init+0x20>
    108f:	90                   	nop
    1090:	f3 0f 1e fa          	endbr64 
    1094:	68 06 00 00 00       	push   0x6
    1099:	f2 e9 81 ff ff ff    	bnd jmp 1020 <_init+0x20>
    109f:	90                   	nop
    10a0:	f3 0f 1e fa          	endbr64 
    10a4:	68 07 00 00 00       	push   0x7
    10a9:	f2 e9 71 ff ff ff    	bnd jmp 1020 <_init+0x20>
    10af:	90                   	nop

Disassembly of section .plt.got:

00000000000010b0 <__cxa_finalize@plt>:
    10b0:	f3 0f 1e fa          	endbr64 
    10b4:	f2 ff 25 3d 2f 00 00 	bnd jmp QWORD PTR [rip+0x2f3d]        # 3ff8 <__cxa_finalize@GLIBC_2.2.5>
    10bb:	0f 1f 44 00 00       	nop    DWORD PTR [rax+rax*1+0x0]

Disassembly of section .plt.sec:

00000000000010c0 <recv@plt>:
    10c0:	f3 0f 1e fa          	endbr64 
    10c4:	f2 ff 25 cd 2e 00 00 	bnd jmp QWORD PTR [rip+0x2ecd]        # 3f98 <recv@GLIBC_2.2.5>
    10cb:	0f 1f 44 00 00       	nop    DWORD PTR [rax+rax*1+0x0]

00000000000010d0 <puts@plt>:
    10d0:	f3 0f 1e fa          	endbr64 
    10d4:	f2 ff 25 c5 2e 00 00 	bnd jmp QWORD PTR [rip+0x2ec5]        # 3fa0 <puts@GLIBC_2.2.5>
    10db:	0f 1f 44 00 00       	nop    DWORD PTR [rax+rax*1+0x0]

00000000000010e0 <htons@plt>:
    10e0:	f3 0f 1e fa          	endbr64 
    10e4:	f2 ff 25 bd 2e 00 00 	bnd jmp QWORD PTR [rip+0x2ebd]        # 3fa8 <htons@GLIBC_2.2.5>
    10eb:	0f 1f 44 00 00       	nop    DWORD PTR [rax+rax*1+0x0]

00000000000010f0 <printf@plt>:
    10f0:	f3 0f 1e fa          	endbr64 
    10f4:	f2 ff 25 b5 2e 00 00 	bnd jmp QWORD PTR [rip+0x2eb5]        # 3fb0 <printf@GLIBC_2.2.5>
    10fb:	0f 1f 44 00 00       	nop    DWORD PTR [rax+rax*1+0x0]

0000000000001100 <close@plt>:
    1100:	f3 0f 1e fa          	endbr64 
    1104:	f2 ff 25 ad 2e 00 00 	bnd jmp QWORD PTR [rip+0x2ead]        # 3fb8 <close@GLIBC_2.2.5>
    110b:	0f 1f 44 00 00       	nop    DWORD PTR [rax+rax*1+0x0]

0000000000001110 <inet_aton@plt>:
    1110:	f3 0f 1e fa          	endbr64 
    1114:	f2 ff 25 a5 2e 00 00 	bnd jmp QWORD PTR [rip+0x2ea5]        # 3fc0 <inet_aton@GLIBC_2.2.5>
    111b:	0f 1f 44 00 00       	nop    DWORD PTR [rax+rax*1+0x0]

0000000000001120 <connect@plt>:
    1120:	f3 0f 1e fa          	endbr64 
    1124:	f2 ff 25 9d 2e 00 00 	bnd jmp QWORD PTR [rip+0x2e9d]        # 3fc8 <connect@GLIBC_2.2.5>
    112b:	0f 1f 44 00 00       	nop    DWORD PTR [rax+rax*1+0x0]

0000000000001130 <socket@plt>:
    1130:	f3 0f 1e fa          	endbr64 
    1134:	f2 ff 25 95 2e 00 00 	bnd jmp QWORD PTR [rip+0x2e95]        # 3fd0 <socket@GLIBC_2.2.5>
    113b:	0f 1f 44 00 00       	nop    DWORD PTR [rax+rax*1+0x0]

Disassembly of section .text:

0000000000001140 <_start>:
_start():
    1140:	f3 0f 1e fa          	endbr64 
    1144:	31 ed                	xor    ebp,ebp
    1146:	49 89 d1             	mov    r9,rdx
    1149:	5e                   	pop    rsi
    114a:	48 89 e2             	mov    rdx,rsp
    114d:	48 83 e4 f0          	and    rsp,0xfffffffffffffff0
    1151:	50                   	push   rax
    1152:	54                   	push   rsp
    1153:	45 31 c0             	xor    r8d,r8d
    1156:	31 c9                	xor    ecx,ecx
    1158:	48 8d 3d ca 00 00 00 	lea    rdi,[rip+0xca]        # 1229 <main>
    115f:	ff 15 73 2e 00 00    	call   QWORD PTR [rip+0x2e73]        # 3fd8 <__libc_start_main@GLIBC_2.34>
    1165:	f4                   	hlt    
    1166:	66 2e 0f 1f 84 00 00 	cs nop WORD PTR [rax+rax*1+0x0]
    116d:	00 00 00 

0000000000001170 <deregister_tm_clones>:
deregister_tm_clones():
    1170:	48 8d 3d 99 2e 00 00 	lea    rdi,[rip+0x2e99]        # 4010 <__TMC_END__>
    1177:	48 8d 05 92 2e 00 00 	lea    rax,[rip+0x2e92]        # 4010 <__TMC_END__>
    117e:	48 39 f8             	cmp    rax,rdi
    1181:	74 15                	je     1198 <deregister_tm_clones+0x28>
    1183:	48 8b 05 56 2e 00 00 	mov    rax,QWORD PTR [rip+0x2e56]        # 3fe0 <_ITM_deregisterTMCloneTable@Base>
    118a:	48 85 c0             	test   rax,rax
    118d:	74 09                	je     1198 <deregister_tm_clones+0x28>
    118f:	ff e0                	jmp    rax
    1191:	0f 1f 80 00 00 00 00 	nop    DWORD PTR [rax+0x0]
    1198:	c3                   	ret    
    1199:	0f 1f 80 00 00 00 00 	nop    DWORD PTR [rax+0x0]

00000000000011a0 <register_tm_clones>:
register_tm_clones():
    11a0:	48 8d 3d 69 2e 00 00 	lea    rdi,[rip+0x2e69]        # 4010 <__TMC_END__>
    11a7:	48 8d 35 62 2e 00 00 	lea    rsi,[rip+0x2e62]        # 4010 <__TMC_END__>
    11ae:	48 29 fe             	sub    rsi,rdi
    11b1:	48 89 f0             	mov    rax,rsi
    11b4:	48 c1 ee 3f          	shr    rsi,0x3f
    11b8:	48 c1 f8 03          	sar    rax,0x3
    11bc:	48 01 c6             	add    rsi,rax
    11bf:	48 d1 fe             	sar    rsi,1
    11c2:	74 14                	je     11d8 <register_tm_clones+0x38>
    11c4:	48 8b 05 25 2e 00 00 	mov    rax,QWORD PTR [rip+0x2e25]        # 3ff0 <_ITM_registerTMCloneTable@Base>
    11cb:	48 85 c0             	test   rax,rax
    11ce:	74 08                	je     11d8 <register_tm_clones+0x38>
    11d0:	ff e0                	jmp    rax
    11d2:	66 0f 1f 44 00 00    	nop    WORD PTR [rax+rax*1+0x0]
    11d8:	c3                   	ret    
    11d9:	0f 1f 80 00 00 00 00 	nop    DWORD PTR [rax+0x0]

00000000000011e0 <__do_global_dtors_aux>:
__do_global_dtors_aux():
    11e0:	f3 0f 1e fa          	endbr64 
    11e4:	80 3d 25 2e 00 00 00 	cmp    BYTE PTR [rip+0x2e25],0x0        # 4010 <__TMC_END__>
    11eb:	75 2b                	jne    1218 <__do_global_dtors_aux+0x38>
    11ed:	55                   	push   rbp
    11ee:	48 83 3d 02 2e 00 00 	cmp    QWORD PTR [rip+0x2e02],0x0        # 3ff8 <__cxa_finalize@GLIBC_2.2.5>
    11f5:	00 
    11f6:	48 89 e5             	mov    rbp,rsp
    11f9:	74 0c                	je     1207 <__do_global_dtors_aux+0x27>
    11fb:	48 8b 3d 06 2e 00 00 	mov    rdi,QWORD PTR [rip+0x2e06]        # 4008 <__dso_handle>
    1202:	e8 a9 fe ff ff       	call   10b0 <__cxa_finalize@plt>
    1207:	e8 64 ff ff ff       	call   1170 <deregister_tm_clones>
    120c:	c6 05 fd 2d 00 00 01 	mov    BYTE PTR [rip+0x2dfd],0x1        # 4010 <__TMC_END__>
    1213:	5d                   	pop    rbp
    1214:	c3                   	ret    
    1215:	0f 1f 00             	nop    DWORD PTR [rax]
    1218:	c3                   	ret    
    1219:	0f 1f 80 00 00 00 00 	nop    DWORD PTR [rax+0x0]

0000000000001220 <frame_dummy>:
frame_dummy():
    1220:	f3 0f 1e fa          	endbr64 
    1224:	e9 77 ff ff ff       	jmp    11a0 <register_tm_clones>

0000000000001229 <main>:
main():
/home/michelle/lab7/./socket_test.c:10
    1229:	f3 0f 1e fa          	endbr64 
    122d:	55                   	push   rbp
    122e:	48 89 e5             	mov    rbp,rsp
    1231:	48 81 ec 90 00 00 00 	sub    rsp,0x90
/home/michelle/lab7/./socket_test.c:11
    1238:	b9 02 00 00 00       	mov    ecx,0x2
    123d:	ba 01 00 00 00       	mov    edx,0x1
    1242:	be 02 00 00 00       	mov    esi,0x2
    1247:	48 8d 05 ba 0d 00 00 	lea    rax,[rip+0xdba]        # 2008 <_IO_stdin_used+0x8>
    124e:	48 89 c7             	mov    rdi,rax
    1251:	b8 00 00 00 00       	mov    eax,0x0
    1256:	e8 95 fe ff ff       	call   10f0 <printf@plt>
/home/michelle/lab7/./socket_test.c:12
    125b:	c7 45 fc 00 00 00 00 	mov    DWORD PTR [rbp-0x4],0x0
/home/michelle/lab7/./socket_test.c:13
    1262:	ba 00 00 00 00       	mov    edx,0x0
    1267:	be 01 00 00 00       	mov    esi,0x1
    126c:	bf 02 00 00 00       	mov    edi,0x2
    1271:	e8 ba fe ff ff       	call   1130 <socket@plt>
    1276:	89 45 fc             	mov    DWORD PTR [rbp-0x4],eax
/home/michelle/lab7/./socket_test.c:16
    1279:	48 8d 45 e0          	lea    rax,[rbp-0x20]
    127d:	48 c7 00 00 00 00 00 	mov    QWORD PTR [rax],0x0
    1284:	48 c7 40 08 00 00 00 	mov    QWORD PTR [rax+0x8],0x0
    128b:	00 
/home/michelle/lab7/./socket_test.c:17
    128c:	66 c7 45 e0 02 00    	mov    WORD PTR [rbp-0x20],0x2
/home/michelle/lab7/./socket_test.c:18
    1292:	bf 37 13 00 00       	mov    edi,0x1337
    1297:	e8 44 fe ff ff       	call   10e0 <htons@plt>
    129c:	66 89 45 e2          	mov    WORD PTR [rbp-0x1e],ax
/home/michelle/lab7/./socket_test.c:19
    12a0:	48 8d 45 e0          	lea    rax,[rbp-0x20]
    12a4:	48 83 c0 04          	add    rax,0x4
    12a8:	48 89 c6             	mov    rsi,rax
    12ab:	48 8d 05 84 0d 00 00 	lea    rax,[rip+0xd84]        # 2036 <_IO_stdin_used+0x36>
    12b2:	48 89 c7             	mov    rdi,rax
    12b5:	e8 56 fe ff ff       	call   1110 <inet_aton@plt>
/home/michelle/lab7/./socket_test.c:22
    12ba:	48 8d 4d e0          	lea    rcx,[rbp-0x20]
    12be:	8b 45 fc             	mov    eax,DWORD PTR [rbp-0x4]
    12c1:	ba 10 00 00 00       	mov    edx,0x10
    12c6:	48 89 ce             	mov    rsi,rcx
    12c9:	89 c7                	mov    edi,eax
    12cb:	e8 50 fe ff ff       	call   1120 <connect@plt>
    12d0:	89 45 f8             	mov    DWORD PTR [rbp-0x8],eax
/home/michelle/lab7/./socket_test.c:23
    12d3:	83 7d f8 ff          	cmp    DWORD PTR [rbp-0x8],0xffffffff
    12d7:	75 14                	jne    12ed <main+0xc4>
/home/michelle/lab7/./socket_test.c:24
    12d9:	48 8d 05 60 0d 00 00 	lea    rax,[rip+0xd60]        # 2040 <_IO_stdin_used+0x40>
    12e0:	48 89 c7             	mov    rdi,rax
    12e3:	b8 00 00 00 00       	mov    eax,0x0
    12e8:	e8 03 fe ff ff       	call   10f0 <printf@plt>
/home/michelle/lab7/./socket_test.c:28
    12ed:	48 8d b5 70 ff ff ff 	lea    rsi,[rbp-0x90]
    12f4:	8b 45 fc             	mov    eax,DWORD PTR [rbp-0x4]
    12f7:	b9 00 00 00 00       	mov    ecx,0x0
    12fc:	ba 64 00 00 00       	mov    edx,0x64
    1301:	89 c7                	mov    edi,eax
    1303:	e8 b8 fd ff ff       	call   10c0 <recv@plt>
/home/michelle/lab7/./socket_test.c:30
    1308:	48 8d 85 70 ff ff ff 	lea    rax,[rbp-0x90]
    130f:	48 89 c6             	mov    rsi,rax
    1312:	48 8d 05 38 0d 00 00 	lea    rax,[rip+0xd38]        # 2051 <_IO_stdin_used+0x51>
    1319:	48 89 c7             	mov    rdi,rax
    131c:	b8 00 00 00 00       	mov    eax,0x0
    1321:	e8 ca fd ff ff       	call   10f0 <printf@plt>
/home/michelle/lab7/./socket_test.c:31
    1326:	48 8d 05 39 0d 00 00 	lea    rax,[rip+0xd39]        # 2066 <_IO_stdin_used+0x66>
    132d:	48 89 c7             	mov    rdi,rax
    1330:	e8 9b fd ff ff       	call   10d0 <puts@plt>
/home/michelle/lab7/./socket_test.c:32
    1335:	8b 45 fc             	mov    eax,DWORD PTR [rbp-0x4]
    1338:	89 c7                	mov    edi,eax
    133a:	e8 c1 fd ff ff       	call   1100 <close@plt>
/home/michelle/lab7/./socket_test.c:34
    133f:	b8 00 00 00 00       	mov    eax,0x0
/home/michelle/lab7/./socket_test.c:35
    1344:	c9                   	leave  
    1345:	c3                   	ret    

Disassembly of section .fini:

0000000000001348 <_fini>:
_fini():
    1348:	f3 0f 1e fa          	endbr64 
    134c:	48 83 ec 08          	sub    rsp,0x8
    1350:	48 83 c4 08          	add    rsp,0x8
    1354:	c3                   	ret    
